(lp0
(F1.0
F1.0
(I0
F1.0
F1.0
tp1
tp2
a(F0.8709677419354839
F0.42857142857142855
(I1
F0.8709677419354839
F0.42857142857142855
tp3
tp4
a(F0.9710144927536232
F0.5
(I2
F0.9710144927536232
F0.5
tp5
tp6
a(F0.927536231884058
F0.375
(I3
F0.927536231884058
F0.375
tp7
tp8
a(F0.9148936170212766
F0.3333333333333333
(I4
F0.9148936170212766
F0.3333333333333333
tp9
tp10
a(F1.0
F1.0
(I5
F1.0
F1.0
tp11
tp12
a(F0.972972972972973
F0.6666666666666666
(I6
F0.972972972972973
F0.6666666666666666
tp13
tp14
a(F0.987012987012987
F0.75
(I7
F0.987012987012987
F0.75
tp15
tp16
a(F0.9866666666666667
F0.8
(I8
F0.9866666666666667
F0.8
tp17
tp18
a(F0.8787878787878788
F0.2
(I9
F0.8787878787878788
F0.2
tp19
tp20
a(F1.0
F1.0
(I10
F1.0
F1.0
tp21
tp22
a(F0.8064516129032258
F0.07692307692307693
(I11
F0.8064516129032258
F0.07692307692307693
tp23
tp24
a(F0.96
F0.8571428571428571
(I12
F0.96
F0.8571428571428571
tp25
tp26
a(F0.9056603773584906
F0.16666666666666666
(I13
F0.9056603773584906
F0.16666666666666666
tp27
tp28
a(F0.9157894736842105
F0.1111111111111111
(I14
F0.9157894736842105
F0.1111111111111111
tp29
tp30
a(F0.9615384615384616
F0.5
(I15
F0.9615384615384616
F0.5
tp31
tp32
a(F0.9871794871794872
F0.6666666666666666
(I16
F0.9871794871794872
F0.6666666666666666
tp33
tp34
a(F0.96
F0.4
(I17
F0.96
F0.4
tp35
tp36
a(F0.967741935483871
F0.7777777777777778
(I18
F0.967741935483871
F0.7777777777777778
tp37
tp38
a(F0.9629629629629629
F0.6666666666666666
(I19
F0.9629629629629629
F0.6666666666666666
tp39
tp40
a(F1.0
F1.0
(I20
F1.0
F1.0
tp41
tp42
a(F0.6181818181818182
F0.0
(I21
F0.6181818181818182
F0.0
tp43
tp44
a(F1.0
F1.0
(I22
F1.0
F1.0
tp45
tp46
a(F0.810126582278481
F0.11764705882352941
(I23
F0.810126582278481
F0.11764705882352941
tp47
tp48
a(F0.9038461538461539
F0.16666666666666666
(I24
F0.9038461538461539
F0.16666666666666666
tp49
tp50
a(F1.0
F1.0
(I25
F1.0
F1.0
tp51
tp52
a(F0.9848484848484849
F0.8333333333333334
(I26
F0.9848484848484849
F0.8333333333333334
tp53
tp54
a(F1.0
F1.0
(I27
F1.0
F1.0
tp55
tp56
a(F0.9622641509433962
F0.6
(I28
F0.9622641509433962
F0.6
tp57
tp58
a(F0.8148148148148148
F0.047619047619047616
(I29
F0.8148148148148148
F0.047619047619047616
tp59
tp60
a(F0.9705882352941176
F0.8333333333333334
(I30
F0.9705882352941176
F0.8333333333333334
tp61
tp62
a(F0.8051948051948052
F0.11764705882352941
(I31
F0.8051948051948052
F0.11764705882352941
tp63
tp64
a(F0.6375
F0.03333333333333333
(I32
F0.6375
F0.03333333333333333
tp65
tp66
a(F0.9375
F0.25
(I33
F0.9375
F0.25
tp67
tp68
a(F0.896551724137931
F0.0
(I34
F0.896551724137931
F0.0
tp69
tp70
a(F0.9846153846153847
F0.75
(I35
F0.9846153846153847
F0.75
tp71
tp72
a(F0.8936170212765957
F0.09090909090909091
(I36
F0.8936170212765957
F0.09090909090909091
tp73
tp74
a(F0.9545454545454546
F0.3333333333333333
(I37
F0.9545454545454546
F0.3333333333333333
tp75
tp76
a(F0.8072289156626506
F0.058823529411764705
(I38
F0.8072289156626506
F0.058823529411764705
tp77
tp78
a(F0.975
F0.6666666666666666
(I39
F0.975
F0.6666666666666666
tp79
tp80
a(F0.75
F0.21739130434782608
(I40
F0.75
F0.21739130434782608
tp81
tp82
a(F0.9696969696969697
F0.6666666666666666
(I41
F0.9696969696969697
F0.6666666666666666
tp83
tp84
a(F0.9278350515463918
F0.125
(I42
F0.9278350515463918
F0.125
tp85
tp86
a(F0.8051948051948052
F0.11764705882352941
(I43
F0.8051948051948052
F0.11764705882352941
tp87
tp88
a(F0.9473684210526315
F0.5
(I44
F0.9473684210526315
F0.5
tp89
tp90
a(F0.8552631578947368
F0.21428571428571427
(I45
F0.8552631578947368
F0.21428571428571427
tp91
tp92
a(F1.0
F1.0
(I46
F1.0
F1.0
tp93
tp94
a(F0.9871794871794872
F0.6666666666666666
(I47
F0.9871794871794872
F0.6666666666666666
tp95
tp96
a(F0.9152542372881356
F0.4444444444444444
(I48
F0.9152542372881356
F0.4444444444444444
tp97
tp98
a(F0.7454545454545455
F0.0
(I49
F0.7454545454545455
F0.0
tp99
tp100
a(F0.7764705882352941
F0.05
(I50
F0.7764705882352941
F0.05
tp101
tp102
a(F0.8415841584158416
F0.058823529411764705
(I51
F0.8415841584158416
F0.058823529411764705
tp103
tp104
a(F1.0
F1.0
(I52
F1.0
F1.0
tp105
tp106
a(F0.9195402298850575
F0.125
(I53
F0.9195402298850575
F0.125
tp107
tp108
a(F0.9
F0.0
(I54
F0.9
F0.0
tp109
tp110
a(F0.9782608695652174
F0.6
(I55
F0.9782608695652174
F0.6
tp111
tp112
a(F1.0
F1.0
(I56
F1.0
F1.0
tp113
tp114
a(F0.8804347826086957
F0.3125
(I57
F0.8804347826086957
F0.3125
tp115
tp116
a(F0.8918918918918919
F0.42857142857142855
(I58
F0.8918918918918919
F0.42857142857142855
tp117
tp118
a(F0.8658536585365854
F0.26666666666666666
(I59
F0.8658536585365854
F0.26666666666666666
tp119
tp120
a(F0.62
F0.02564102564102564
(I60
F0.62
F0.02564102564102564
tp121
tp122
a(F0.9690721649484536
F0.5714285714285714
(I61
F0.9690721649484536
F0.5714285714285714
tp123
tp124
a(F1.0
F1.0
(I62
F1.0
F1.0
tp125
tp126
a(F0.98989898989899
F0.875
(I63
F0.98989898989899
F0.875
tp127
tp128
a(F0.9444444444444444
F0.5
(I64
F0.9444444444444444
F0.5
tp129
tp130
a(F0.926829268292683
F0.25
(I65
F0.926829268292683
F0.25
tp131
tp132
a(F0.9134615384615384
F0.1
(I66
F0.9134615384615384
F0.1
tp133
tp134
a(F0.8253968253968254
F0.5769230769230769
(I67
F0.8253968253968254
F0.5769230769230769
tp135
tp136
a(F0.8333333333333334
F0.08333333333333333
(I68
F0.8333333333333334
F0.08333333333333333
tp137
tp138
a(F0.4247787610619469
F0.0
(I69
F0.4247787610619469
F0.0
tp139
tp140
a(F1.0
F1.0
(I70
F1.0
F1.0
tp141
tp142
a(F0.9666666666666667
F0.5
(I71
F0.9666666666666667
F0.5
tp143
tp144
a(F0.6571428571428571
F0.35135135135135137
(I72
F0.6571428571428571
F0.35135135135135137
tp145
tp146
a(F0.9444444444444444
F0.8571428571428571
(I73
F0.9444444444444444
F0.8571428571428571
tp147
tp148
a(F0.9333333333333333
F0.9459459459459459
(I74
F0.9333333333333333
F0.9459459459459459
tp149
tp150
a(F0.9814814814814815
F0.8
(I75
F0.9814814814814815
F0.8
tp151
tp152
a(F0.9117647058823529
F0.14285714285714285
(I76
F0.9117647058823529
F0.14285714285714285
tp153
tp154
a(F0.8433734939759037
F0.5666666666666667
(I77
F0.8433734939759037
F0.5666666666666667
tp155
tp156
a(F1.0
F1.0
(I78
F1.0
F1.0
tp157
tp158
a(F0.9285714285714286
F0.88
(I79
F0.9285714285714286
F0.88
tp159
tp160
a(F0.6597938144329897
F0.08333333333333333
(I80
F0.6597938144329897
F0.08333333333333333
tp161
tp162
a(F0.8918918918918919
F0.1111111111111111
(I81
F0.8918918918918919
F0.1111111111111111
tp163
tp164
a(F0.9818181818181818
F0.9714285714285714
(I82
F0.9818181818181818
F0.9714285714285714
tp165
tp166
a(F0.8148148148148148
F0.3333333333333333
(I83
F0.8148148148148148
F0.3333333333333333
tp167
tp168
a(F0.6461538461538462
F0.8413793103448276
(I84
F0.6461538461538462
F0.8413793103448276
tp169
tp170
a(F0.0
F0.4074074074074074
(I85
F0.0
F0.4074074074074074
tp171
tp172
a(F1.0
F1.0
(I86
F1.0
F1.0
tp173
tp174
a(F0.2857142857142857
F0.7169811320754716
(I87
F0.2857142857142857
F0.7169811320754716
tp175
tp176
a(F0.7662337662337663
F0.926530612244898
(I88
F0.7662337662337663
F0.926530612244898
tp177
tp178
a(F0.3114754098360656
F0.6911764705882353
(I89
F0.3114754098360656
F0.6911764705882353
tp179
tp180
a(F0.9516129032258065
F0.9875518672199171
(I90
F0.9516129032258065
F0.9875518672199171
tp181
tp182
a(F0.6190476190476191
F0.937007874015748
(I91
F0.6190476190476191
F0.937007874015748
tp183
tp184
a(F0.9761904761904762
F0.9951923076923077
(I92
F0.9761904761904762
F0.9951923076923077
tp185
tp186
a(F0.6410256410256411
F0.9146341463414634
(I93
F0.6410256410256411
F0.9146341463414634
tp187
tp188
a(F0.9387755102040817
F0.9898305084745763
(I94
F0.9387755102040817
F0.9898305084745763
tp189
tp190
a(F0.8548387096774194
F0.9516129032258065
(I95
F0.8548387096774194
F0.9516129032258065
tp191
tp192
a(F0.8032786885245902
F0.9354838709677419
(I96
F0.8032786885245902
F0.9354838709677419
tp193
tp194
a(F0.1891891891891892
F0.9467140319715808
(I97
F0.1891891891891892
F0.9467140319715808
tp195
tp196
a(F0.005813953488372093
F0.2191780821917808
(I98
F0.005813953488372093
F0.2191780821917808
tp197
tp198
a(F0.5434782608695652
F0.8372093023255814
(I99
F0.5434782608695652
F0.8372093023255814
tp199
tp200
a(F0.3275862068965517
F0.8235294117647058
(I100
F0.3275862068965517
F0.8235294117647058
tp201
tp202
a(F0.12280701754385964
F0.609375
(I101
F0.12280701754385964
F0.609375
tp203
tp204
a(F0.5238095238095238
F0.8076923076923077
(I102
F0.5238095238095238
F0.8076923076923077
tp205
tp206
a(F0.54
F0.926984126984127
(I103
F0.54
F0.926984126984127
tp207
tp208
a(F0.5581395348837209
F0.8661971830985915
(I104
F0.5581395348837209
F0.8661971830985915
tp209
tp210
a(F0.7763157894736842
F0.9267241379310345
(I105
F0.7763157894736842
F0.9267241379310345
tp211
tp212
a(F0.6857142857142857
F0.9197080291970803
(I106
F0.6857142857142857
F0.9197080291970803
tp213
tp214
a(F0.48333333333333334
F0.8132530120481928
(I107
F0.48333333333333334
F0.8132530120481928
tp215
tp216
a(F0.6451612903225806
F0.9087136929460581
(I108
F0.6451612903225806
F0.9087136929460581
tp217
tp218
a(F0.4107142857142857
F0.7642857142857142
(I109
F0.4107142857142857
F0.7642857142857142
tp219
tp220
a(F0.6
F0.8955223880597015
(I110
F0.6
F0.8955223880597015
tp221
tp222
a(F0.6923076923076923
F0.9329608938547486
(I111
F0.6923076923076923
F0.9329608938547486
tp223
tp224
a(F0.8636363636363636
F0.9758064516129032
(I112
F0.8636363636363636
F0.9758064516129032
tp225
tp226
a(F0.7272727272727273
F0.1
(I113
F0.7272727272727273
F0.1
tp227
tp228
a(F0.9444444444444444
F0.3333333333333333
(I114
F0.9444444444444444
F0.3333333333333333
tp229
tp230
a(F1.0
F1.0
(I115
F1.0
F1.0
tp231
tp232
a(F0.8823529411764706
F0.2
(I116
F0.8823529411764706
F0.2
tp233
tp234
a(F0.967741935483871
F0.6666666666666666
(I117
F0.967741935483871
F0.6666666666666666
tp235
tp236
a(F1.0
F1.0
(I118
F1.0
F1.0
tp237
tp238
a(F1.0
F1.0
(I119
F1.0
F1.0
tp239
tp240
a(F0.5949367088607594
F0.0
(I120
F0.5949367088607594
F0.0
tp241
tp242
a(F0.6538461538461539
F0.18181818181818182
(I121
F0.6538461538461539
F0.18181818181818182
tp243
tp244
a(F0.8955223880597015
F0.0
(I122
F0.8955223880597015
F0.0
tp245
tp246
a(F0.7571428571428571
F0.0
(I123
F0.7571428571428571
F0.0
tp247
tp248
a(F0.8857142857142857
F0.0
(I124
F0.8857142857142857
F0.0
tp249
tp250
a(F1.0
F1.0
(I125
F1.0
F1.0
tp251
tp252
a(F0.2916666666666667
F0.6730769230769231
(I126
F0.2916666666666667
F0.6730769230769231
tp253
tp254
a(F0.8378378378378378
F0.14285714285714285
(I127
F0.8378378378378378
F0.14285714285714285
tp255
tp256
a(F0.8823529411764706
F0.0
(I128
F0.8823529411764706
F0.0
tp257
tp258
a(F1.0
F1.0
(I129
F1.0
F1.0
tp259
tp260
a(F0.8541666666666666
F0.0
(I130
F0.8541666666666666
F0.0
tp261
tp262
a(F0.9322033898305084
F0.42857142857142855
(I131
F0.9322033898305084
F0.42857142857142855
tp263
tp264
a(F1.0
F1.0
(I132
F1.0
F1.0
tp265
tp266
a(F0.9230769230769231
F0.5714285714285714
(I133
F0.9230769230769231
F0.5714285714285714
tp267
tp268
a(F0.5303030303030303
F0.0
(I134
F0.5303030303030303
F0.0
tp269
tp270
a(F0.9047619047619048
F0.45454545454545453
(I135
F0.9047619047619048
F0.45454545454545453
tp271
tp272
a(F0.9655172413793104
F0.0
(I136
F0.9655172413793104
F0.0
tp273
tp274
a(F0.8666666666666667
F0.0
(I137
F0.8666666666666667
F0.0
tp275
tp276
a(F0.796875
F0.0
(I138
F0.796875
F0.0
tp277
tp278
a(F0.9836065573770492
F0.8333333333333334
(I139
F0.9836065573770492
F0.8333333333333334
tp279
tp280
a(F0.576271186440678
F0.0
(I140
F0.576271186440678
F0.0
tp281
tp282
a(F0.8484848484848485
F0.0
(I141
F0.8484848484848485
F0.0
tp283
tp284
a(F0.581081081081081
F0.0
(I142
F0.581081081081081
F0.0
tp285
tp286
a(F0.8125
F0.0
(I143
F0.8125
F0.0
tp287
tp288
a(F0.875
F0.1
(I144
F0.875
F0.1
tp289
tp290
a(F0.9574468085106383
F0.3333333333333333
(I145
F0.9574468085106383
F0.3333333333333333
tp291
tp292
a(F0.8148148148148148
F0.0625
(I146
F0.8148148148148148
F0.0625
tp293
tp294
a(F0.8596491228070176
F0.1111111111111111
(I147
F0.8596491228070176
F0.1111111111111111
tp295
tp296
a(F0.6666666666666666
F0.0
(I148
F0.6666666666666666
F0.0
tp297
tp298
a(F0.6373626373626373
F0.029411764705882353
(I149
F0.6373626373626373
F0.029411764705882353
tp299
tp300
a(F0.9538461538461539
F0.625
(I150
F0.9538461538461539
F0.625
tp301
tp302
a(F0.953125
F0.6666666666666666
(I151
F0.953125
F0.6666666666666666
tp303
tp304
a(F0.9361702127659575
F0.4
(I152
F0.9361702127659575
F0.4
tp305
tp306
a(F0.9361702127659575
F0.5
(I153
F0.9361702127659575
F0.5
tp307
tp308
a(F0.9302325581395349
F0.14285714285714285
(I154
F0.9302325581395349
F0.14285714285714285
tp309
tp310
a(F0.8163265306122449
F0.1
(I155
F0.8163265306122449
F0.1
tp311
tp312
a(F0.9682539682539683
F0.3333333333333333
(I156
F0.9682539682539683
F0.3333333333333333
tp313
tp314
a(F0.8602150537634409
F0.13333333333333333
(I157
F0.8602150537634409
F0.13333333333333333
tp315
tp316
a(F0.88
F0.0
(I158
F0.88
F0.0
tp317
tp318
a(F0.675
F0.0
(I159
F0.675
F0.0
tp319
tp320
a(F0.7948717948717948
F0.1111111111111111
(I160
F0.7948717948717948
F0.1111111111111111
tp321
tp322
a(F1.0
F1.0
(I161
F1.0
F1.0
tp323
tp324
a(F0.8591549295774648
F0.09090909090909091
(I162
F0.8591549295774648
F0.09090909090909091
tp325
tp326
a(F0.8533333333333334
F0.0
(I163
F0.8533333333333334
F0.0
tp327
tp328
a(F0.9838709677419355
F0.8
(I164
F0.9838709677419355
F0.8
tp329
tp330
a(F0.8148148148148148
F0.21052631578947367
(I165
F0.8148148148148148
F0.21052631578947367
tp331
tp332
a(F0.7951807228915663
F0.05555555555555555
(I166
F0.7951807228915663
F0.05555555555555555
tp333
tp334
a(F0.8082191780821918
F0.0
(I167
F0.8082191780821918
F0.0
tp335
tp336
a(F0.7625
F0.13636363636363635
(I168
F0.7625
F0.13636363636363635
tp337
tp338
a(F0.9411764705882353
F0.6
(I169
F0.9411764705882353
F0.6
tp339
tp340
a(F0.6086956521739131
F0.05263157894736842
(I170
F0.6086956521739131
F0.05263157894736842
tp341
tp342
a(F0.7441860465116279
F0.08333333333333333
(I171
F0.7441860465116279
F0.08333333333333333
tp343
tp344
a(F0.9139784946236559
F0.2
(I172
F0.9139784946236559
F0.2
tp345
tp346
a(F0.9148936170212766
F0.42857142857142855
(I173
F0.9148936170212766
F0.42857142857142855
tp347
tp348
a(F0.9342105263157895
F0.6153846153846154
(I174
F0.9342105263157895
F0.6153846153846154
tp349
tp350
a(F0.9759036144578314
F0.6666666666666666
(I175
F0.9759036144578314
F0.6666666666666666
tp351
tp352
a(F1.0
F1.0
(I176
F1.0
F1.0
tp353
tp354
a(F0.9358974358974359
F0.16666666666666666
(I177
F0.9358974358974359
F0.16666666666666666
tp355
tp356
a(F0.9888888888888889
F0.8333333333333334
(I178
F0.9888888888888889
F0.8333333333333334
tp357
tp358
a(F0.8461538461538461
F0.14285714285714285
(I179
F0.8461538461538461
F0.14285714285714285
tp359
tp360
a(F1.0
F1.0
(I180
F1.0
F1.0
tp361
tp362
a(F0.975609756097561
F0.8
(I181
F0.975609756097561
F0.8
tp363
tp364
a(F1.0
F1.0
(I182
F1.0
F1.0
tp365
tp366
a(F0.9659090909090909
F0.5
(I183
F0.9659090909090909
F0.5
tp367
tp368
a(F1.0
F1.0
(I184
F1.0
F1.0
tp369
tp370
a(F0.9857142857142858
F0.8571428571428571
(I185
F0.9857142857142858
F0.8571428571428571
tp371
tp372
a(F0.9710144927536232
F0.75
(I186
F0.9710144927536232
F0.75
tp373
tp374
a(F0.8311688311688312
F0.0
(I187
F0.8311688311688312
F0.0
tp375
tp376
a(F0.975609756097561
F0.7142857142857143
(I188
F0.975609756097561
F0.7142857142857143
tp377
tp378
a(F0.9692307692307692
F0.3333333333333333
(I189
F0.9692307692307692
F0.3333333333333333
tp379
tp380
a(F0.8125
F0.07692307692307693
(I190
F0.8125
F0.07692307692307693
tp381
tp382
a(F0.8117647058823529
F0.0
(I191
F0.8117647058823529
F0.0
tp383
tp384
a(F0.9512195121951219
F0.5
(I192
F0.9512195121951219
F0.5
tp385
tp386
a(F0.9555555555555556
F0.5
(I193
F0.9555555555555556
F0.5
tp387
tp388
a(F0.7623762376237624
F0.07692307692307693
(I194
F0.7623762376237624
F0.07692307692307693
tp389
tp390
a(F1.0
F1.0
(I195
F1.0
F1.0
tp391
tp392
a(F1.0
F1.0
(I196
F1.0
F1.0
tp393
tp394
a(F0.9767441860465116
F0.875
(I197
F0.9767441860465116
F0.875
tp395
tp396
a(F0.9090909090909091
F0.6666666666666666
(I198
F0.9090909090909091
F0.6666666666666666
tp397
tp398
a(F0.7631578947368421
F0.47058823529411764
(I199
F0.7631578947368421
F0.47058823529411764
tp399
tp400
a(F0.5806451612903226
F0.23529411764705882
(I200
F0.5806451612903226
F0.23529411764705882
tp401
tp402
a(F0.7560975609756098
F0.6551724137931034
(I201
F0.7560975609756098
F0.6551724137931034
tp403
tp404
a(F0.95
F0.7142857142857143
(I202
F0.95
F0.7142857142857143
tp405
tp406
a(F0.6
F0.125
(I203
F0.6
F0.125
tp407
tp408
a(F0.9090909090909091
F0.3333333333333333
(I204
F0.9090909090909091
F0.3333333333333333
tp409
tp410
a(F1.0
F1.0
(I205
F1.0
F1.0
tp411
tp412
a(F0.8958333333333334
F0.7058823529411765
(I206
F0.8958333333333334
F0.7058823529411765
tp413
tp414
a(F0.8604651162790697
F0.625
(I207
F0.8604651162790697
F0.625
tp415
tp416
a(F0.41379310344827586
F0.10526315789473684
(I208
F0.41379310344827586
F0.10526315789473684
tp417
tp418
a(F0.3333333333333333
F0.0
(I209
F0.3333333333333333
F0.0
tp419
tp420
a(F0.8222222222222222
F0.3333333333333333
(I210
F0.8222222222222222
F0.3333333333333333
tp421
tp422
a(F0.7804878048780488
F0.35714285714285715
(I211
F0.7804878048780488
F0.35714285714285715
tp423
tp424
a(F0.39285714285714285
F0.0
(I212
F0.39285714285714285
F0.0
tp425
tp426
a(F0.5806451612903226
F0.0
(I213
F0.5806451612903226
F0.0
tp427
tp428
a(F0.6756756756756757
F0.3684210526315789
(I214
F0.6756756756756757
F0.3684210526315789
tp429
tp430
a(F0.825
F0.36363636363636365
(I215
F0.825
F0.36363636363636365
tp431
tp432
a(F0.6857142857142857
F0.26666666666666666
(I216
F0.6857142857142857
F0.26666666666666666
tp433
tp434
a(F0.53125
F0.16666666666666666
(I217
F0.53125
F0.16666666666666666
tp435
tp436
a(F0.8928571428571429
F0.6666666666666666
(I218
F0.8928571428571429
F0.6666666666666666
tp437
tp438
a(F0.8620689655172413
F0.3333333333333333
(I219
F0.8620689655172413
F0.3333333333333333
tp439
tp440
a(F0.9333333333333333
F0.8235294117647058
(I220
F0.9333333333333333
F0.8235294117647058
tp441
tp442
a(F0.6666666666666666
F0.21428571428571427
(I221
F0.6666666666666666
F0.21428571428571427
tp443
tp444
a(F0.8709677419354839
F0.75
(I222
F0.8709677419354839
F0.75
tp445
tp446
a(F0.325
F0.0
(I223
F0.325
F0.0
tp447
tp448
a(F1.0
F1.0
(I224
F1.0
F1.0
tp449
tp450
a(F0.7857142857142857
F0.75
(I225
F0.7857142857142857
F0.75
tp451
tp452
a(F0.8863636363636364
F0.6153846153846154
(I226
F0.8863636363636364
F0.6153846153846154
tp453
tp454
a.