(lp0
(F0.9824561403508771
F0.9166666666666666
(I0
F0.9824561403508771
F0.9166666666666666
tp1
tp2
a(F0.9733333333333334
F0.8947368421052632
(I1
F0.9733333333333334
F0.8947368421052632
tp3
tp4
a(F0.9466666666666667
F0.8181818181818182
(I2
F0.9466666666666667
F0.8181818181818182
tp5
tp6
a(F0.925
F0.5714285714285714
(I3
F0.925
F0.5714285714285714
tp7
tp8
a(F0.9523809523809523
F0.75
(I4
F0.9523809523809523
F0.75
tp9
tp10
a(F0.9701492537313433
F0.3333333333333333
(I5
F0.9701492537313433
F0.3333333333333333
tp11
tp12
a(F0.9861111111111112
F0.9090909090909091
(I6
F0.9861111111111112
F0.9090909090909091
tp13
tp14
a(F1.0
F1.0
(I7
F1.0
F1.0
tp15
tp16
a(F0.989010989010989
F0.75
(I8
F0.989010989010989
F0.75
tp17
tp18
a(F1.0
F1.0
(I9
F1.0
F1.0
tp19
tp20
a(F0.9545454545454546
F0.75
(I10
F0.9545454545454546
F0.75
tp21
tp22
a(F0.9818181818181818
F0.9230769230769231
(I11
F0.9818181818181818
F0.9230769230769231
tp23
tp24
a(F0.9705882352941176
F0.8181818181818182
(I12
F0.9705882352941176
F0.8181818181818182
tp25
tp26
a(F0.9777777777777777
F0.75
(I13
F0.9777777777777777
F0.75
tp27
tp28
a(F0.7625
F0.13636363636363635
(I14
F0.7625
F0.13636363636363635
tp29
tp30
a(F0.9178082191780822
F0.7777777777777778
(I15
F0.9178082191780822
F0.7777777777777778
tp31
tp32
a(F0.9866666666666667
F0.9166666666666666
(I16
F0.9866666666666667
F0.9166666666666666
tp33
tp34
a(F0.9746835443037974
F0.8823529411764706
(I17
F0.9746835443037974
F0.8823529411764706
tp35
tp36
a(F0.9166666666666666
F0.0
(I18
F0.9166666666666666
F0.0
tp37
tp38
a(F0.9178082191780822
F0.3333333333333333
(I19
F0.9178082191780822
F0.3333333333333333
tp39
tp40
a(F0.9534883720930233
F0.7647058823529411
(I20
F0.9534883720930233
F0.7647058823529411
tp41
tp42
a(F0.9791666666666666
F0.9230769230769231
(I21
F0.9791666666666666
F0.9230769230769231
tp43
tp44
a(F0.9166666666666666
F0.6363636363636364
(I22
F0.9166666666666666
F0.6363636363636364
tp45
tp46
a(F0.9661016949152542
F0.8181818181818182
(I23
F0.9661016949152542
F0.8181818181818182
tp47
tp48
a(F0.9431818181818182
F0.0
(I24
F0.9431818181818182
F0.0
tp49
tp50
a(F0.9827586206896551
F0.9523809523809523
(I25
F0.9827586206896551
F0.9523809523809523
tp51
tp52
a(F0.9634146341463414
F0.5714285714285714
(I26
F0.9634146341463414
F0.5714285714285714
tp53
tp54
a(F0.9230769230769231
F0.45454545454545453
(I27
F0.9230769230769231
F0.45454545454545453
tp55
tp56
a(F0.9387755102040817
F0.5
(I28
F0.9387755102040817
F0.5
tp57
tp58
a(F0.8979591836734694
F0.16666666666666666
(I29
F0.8979591836734694
F0.16666666666666666
tp59
tp60
a(F0.8823529411764706
F0.25
(I30
F0.8823529411764706
F0.25
tp61
tp62
a(F0.8791208791208791
F0.0
(I31
F0.8791208791208791
F0.0
tp63
tp64
a(F0.7349397590361446
F0.0
(I32
F0.7349397590361446
F0.0
tp65
tp66
a(F0.49473684210526314
F0.0
(I33
F0.49473684210526314
F0.0
tp67
tp68
a(F0.8591549295774648
F0.09090909090909091
(I34
F0.8591549295774648
F0.09090909090909091
tp69
tp70
a(F0.631578947368421
F0.0
(I35
F0.631578947368421
F0.0
tp71
tp72
a(F0.5384615384615384
F0.0
(I36
F0.5384615384615384
F0.0
tp73
tp74
a(F0.5363636363636364
F0.0
(I37
F0.5363636363636364
F0.0
tp75
tp76
a(F0.6455696202531646
F0.034482758620689655
(I38
F0.6455696202531646
F0.034482758620689655
tp77
tp78
a(F0.7352941176470589
F0.0
(I39
F0.7352941176470589
F0.0
tp79
tp80
a(F0.813953488372093
F0.1111111111111111
(I40
F0.813953488372093
F0.1111111111111111
tp81
tp82
a(F0.8541666666666666
F0.125
(I41
F0.8541666666666666
F0.125
tp83
tp84
a(F0.8902439024390244
F0.0
(I42
F0.8902439024390244
F0.0
tp85
tp86
a(F0.8207547169811321
F0.0
(I43
F0.8207547169811321
F0.0
tp87
tp88
a(F0.704225352112676
F0.0
(I44
F0.704225352112676
F0.0
tp89
tp90
a(F0.5887850467289719
F0.0
(I45
F0.5887850467289719
F0.0
tp91
tp92
a(F0.8823529411764706
F0.0
(I46
F0.8823529411764706
F0.0
tp93
tp94
a(F0.51
F0.02
(I47
F0.51
F0.02
tp95
tp96
a(F0.5784313725490197
F0.0
(I48
F0.5784313725490197
F0.0
tp97
tp98
a(F0.8461538461538461
F0.0
(I49
F0.8461538461538461
F0.0
tp99
tp100
a(F0.7083333333333334
F0.0
(I50
F0.7083333333333334
F0.0
tp101
tp102
a(F0.8059701492537313
F0.07142857142857142
(I51
F0.8059701492537313
F0.07142857142857142
tp103
tp104
a(F0.6597938144329897
F0.0
(I52
F0.6597938144329897
F0.0
tp105
tp106
a(F0.7936507936507936
F0.13333333333333333
(I53
F0.7936507936507936
F0.13333333333333333
tp107
tp108
a(F0.86
F0.0
(I54
F0.86
F0.0
tp109
tp110
a(F0.9318181818181818
F0.25
(I55
F0.9318181818181818
F0.25
tp111
tp112
a(F0.7222222222222222
F0.0
(I56
F0.7222222222222222
F0.0
tp113
tp114
a(F0.927536231884058
F0.0
(I57
F0.927536231884058
F0.0
tp115
tp116
a(F0.9848484848484849
F0.9
(I58
F0.9848484848484849
F0.9
tp117
tp118
a(F0.9111111111111111
F0.3333333333333333
(I59
F0.9111111111111111
F0.3333333333333333
tp119
tp120
a(F0.9180327868852459
F0.2857142857142857
(I60
F0.9180327868852459
F0.2857142857142857
tp121
tp122
a(F0.9838709677419355
F0.9090909090909091
(I61
F0.9838709677419355
F0.9090909090909091
tp123
tp124
a(F1.0
F1.0
(I62
F1.0
F1.0
tp125
tp126
a(F1.0
F1.0
(I63
F1.0
F1.0
tp127
tp128
a(F0.9193548387096774
F0.6153846153846154
(I64
F0.9193548387096774
F0.6153846153846154
tp129
tp130
a(F0.8666666666666667
F0.3333333333333333
(I65
F0.8666666666666667
F0.3333333333333333
tp131
tp132
a(F0.9848484848484849
F0.9
(I66
F0.9848484848484849
F0.9
tp133
tp134
a(F0.8205128205128205
F0.2222222222222222
(I67
F0.8205128205128205
F0.2222222222222222
tp135
tp136
a(F0.9
F0.45454545454545453
(I68
F0.9
F0.45454545454545453
tp137
tp138
a(F0.9047619047619048
F0.6666666666666666
(I69
F0.9047619047619048
F0.6666666666666666
tp139
tp140
a(F0.85
F0.25
(I70
F0.85
F0.25
tp141
tp142
a(F0.8805970149253731
F0.2727272727272727
(I71
F0.8805970149253731
F0.2727272727272727
tp143
tp144
a(F0.9
F0.4166666666666667
(I72
F0.9
F0.4166666666666667
tp145
tp146
a(F0.8823529411764706
F0.6190476190476191
(I73
F0.8823529411764706
F0.6190476190476191
tp147
tp148
a(F0.9459459459459459
F0.6
(I74
F0.9459459459459459
F0.6
tp149
tp150
a(F0.9230769230769231
F0.75
(I75
F0.9230769230769231
F0.75
tp151
tp152
a(F0.8260869565217391
F0.14285714285714285
(I76
F0.8260869565217391
F0.14285714285714285
tp153
tp154
a(F0.95
F0.85
(I77
F0.95
F0.85
tp155
tp156
a(F1.0
F1.0
(I78
F1.0
F1.0
tp157
tp158
a(F0.9117647058823529
F0.0
(I79
F0.9117647058823529
F0.0
tp159
tp160
a(F0.8412698412698413
F0.47368421052631576
(I80
F0.8412698412698413
F0.47368421052631576
tp161
tp162
a(F0.9629629629629629
F0.6666666666666666
(I81
F0.9629629629629629
F0.6666666666666666
tp163
tp164
a(F0.8653846153846154
F0.125
(I82
F0.8653846153846154
F0.125
tp165
tp166
a(F0.9347826086956522
F0.5
(I83
F0.9347826086956522
F0.5
tp167
tp168
a(F0.9538461538461539
F0.7692307692307693
(I84
F0.9538461538461539
F0.7692307692307693
tp169
tp170
a(F0.7954545454545454
F0.5
(I85
F0.7954545454545454
F0.5
tp171
tp172
a(F0.9361702127659575
F0.5
(I86
F0.9361702127659575
F0.5
tp173
tp174
a(F0.8333333333333334
F0.25
(I87
F0.8333333333333334
F0.25
tp175
tp176
a(F0.9322033898305084
F0.5555555555555556
(I88
F0.9322033898305084
F0.5555555555555556
tp177
tp178
a(F0.9574468085106383
F0.6
(I89
F0.9574468085106383
F0.6
tp179
tp180
a(F0.975609756097561
F0.8333333333333334
(I90
F0.975609756097561
F0.8333333333333334
tp181
tp182
a(F0.8153846153846154
F0.0
(I91
F0.8153846153846154
F0.0
tp183
tp184
a(F0.9393939393939394
F0.6
(I92
F0.9393939393939394
F0.6
tp185
tp186
a(F0.95
F0.25
(I93
F0.95
F0.25
tp187
tp188
a(F0.9436619718309859
F0.3333333333333333
(I94
F0.9436619718309859
F0.3333333333333333
tp189
tp190
a(F0.9661016949152542
F0.8666666666666667
(I95
F0.9661016949152542
F0.8666666666666667
tp191
tp192
a(F0.961038961038961
F0.625
(I96
F0.961038961038961
F0.625
tp193
tp194
a(F0.971830985915493
F0.8
(I97
F0.971830985915493
F0.8
tp195
tp196
a(F1.0
F1.0
(I98
F1.0
F1.0
tp197
tp198
a(F0.9459459459459459
F0.42857142857142855
(I99
F0.9459459459459459
F0.42857142857142855
tp199
tp200
a(F1.0
F1.0
(I100
F1.0
F1.0
tp201
tp202
a(F0.8732394366197183
F0.47058823529411764
(I101
F0.8732394366197183
F0.47058823529411764
tp203
tp204
a(F0.9830508474576272
F0.9090909090909091
(I102
F0.9830508474576272
F0.9090909090909091
tp205
tp206
a(F0.9714285714285714
F0.9285714285714286
(I103
F0.9714285714285714
F0.9285714285714286
tp207
tp208
a(F0.8163265306122449
F0.0
(I104
F0.8163265306122449
F0.0
tp209
tp210
a(F1.0
F1.0
(I105
F1.0
F1.0
tp211
tp212
a(F0.9344262295081968
F0.3333333333333333
(I106
F0.9344262295081968
F0.3333333333333333
tp213
tp214
a(F0.9302325581395349
F0.5
(I107
F0.9302325581395349
F0.5
tp215
tp216
a(F0.9117647058823529
F0.5
(I108
F0.9117647058823529
F0.5
tp217
tp218
a(F0.9016393442622951
F0.7
(I109
F0.9016393442622951
F0.7
tp219
tp220
a(F0.9367088607594937
F0.2857142857142857
(I110
F0.9367088607594937
F0.2857142857142857
tp221
tp222
a(F0.9180327868852459
F0.6153846153846154
(I111
F0.9180327868852459
F0.6153846153846154
tp223
tp224
a(F0.9830508474576272
F0.9523809523809523
(I112
F0.9830508474576272
F0.9523809523809523
tp225
tp226
a(F0.9830508474576272
F0.9
(I113
F0.9830508474576272
F0.9
tp227
tp228
a(F0.9827586206896551
F0.875
(I114
F0.9827586206896551
F0.875
tp229
tp230
a(F0.8636363636363636
F0.14285714285714285
(I115
F0.8636363636363636
F0.14285714285714285
tp231
tp232
a(F0.6842105263157895
F0.1
(I116
F0.6842105263157895
F0.1
tp233
tp234
a(F0.7454545454545455
F0.06666666666666667
(I117
F0.7454545454545455
F0.06666666666666667
tp235
tp236
a(F0.875
F0.0
(I118
F0.875
F0.0
tp237
tp238
a(F0.6444444444444445
F0.0
(I119
F0.6444444444444445
F0.0
tp239
tp240
a(F0.8108108108108109
F0.0
(I120
F0.8108108108108109
F0.0
tp241
tp242
a(F0.7037037037037037
F0.058823529411764705
(I121
F0.7037037037037037
F0.058823529411764705
tp243
tp244
a(F0.918918918918919
F0.4
(I122
F0.918918918918919
F0.4
tp245
tp246
a(F0.7761194029850746
F0.21052631578947367
(I123
F0.7761194029850746
F0.21052631578947367
tp247
tp248
a(F0.7936507936507936
F0.0
(I124
F0.7936507936507936
F0.0
tp249
tp250
a(F0.8813559322033898
F0.0
(I125
F0.8813559322033898
F0.0
tp251
tp252
a(F0.6285714285714286
F0.037037037037037035
(I126
F0.6285714285714286
F0.037037037037037035
tp253
tp254
a(F0.9285714285714286
F0.4
(I127
F0.9285714285714286
F0.4
tp255
tp256
a(F0.9038461538461539
F0.16666666666666666
(I128
F0.9038461538461539
F0.16666666666666666
tp257
tp258
a(F0.6333333333333333
F0.12
(I129
F0.6333333333333333
F0.12
tp259
tp260
a(F0.7931034482758621
F0.4
(I130
F0.7931034482758621
F0.4
tp261
tp262
a(F0.8461538461538461
F0.14285714285714285
(I131
F0.8461538461538461
F0.14285714285714285
tp263
tp264
a(F0.4482758620689655
F0.0
(I132
F0.4482758620689655
F0.0
tp265
tp266
a(F0.7213114754098361
F0.0
(I133
F0.7213114754098361
F0.0
tp267
tp268
a(F0.803030303030303
F0.0
(I134
F0.803030303030303
F0.0
tp269
tp270
a(F0.3220338983050847
F0.0
(I135
F0.3220338983050847
F0.0
tp271
tp272
a(F0.5609756097560976
F0.0
(I136
F0.5609756097560976
F0.0
tp273
tp274
a(F0.15789473684210525
F0.616
(I137
F0.15789473684210525
F0.616
tp275
tp276
a(F0.7397260273972602
F0.0
(I138
F0.7397260273972602
F0.0
tp277
tp278
a(F0.96875
F0.6666666666666666
(I139
F0.96875
F0.6666666666666666
tp279
tp280
a(F0.6266666666666667
F0.0
(I140
F0.6266666666666667
F0.0
tp281
tp282
a(F0.868421052631579
F0.4444444444444444
(I141
F0.868421052631579
F0.4444444444444444
tp283
tp284
a(F0.0967741935483871
F0.017543859649122806
(I142
F0.0967741935483871
F0.017543859649122806
tp285
tp286
a(F0.40298507462686567
F0.024390243902439025
(I143
F0.40298507462686567
F0.024390243902439025
tp287
tp288
a(F0.11904761904761904
F0.8102564102564103
(I144
F0.11904761904761904
F0.8102564102564103
tp289
tp290
a(F0.7777777777777778
F0.6
(I145
F0.7777777777777778
F0.6
tp291
tp292
a(F0.7692307692307693
F0.7391304347826086
(I146
F0.7692307692307693
F0.7391304347826086
tp293
tp294
a(F0.5964912280701754
F0.0
(I147
F0.5964912280701754
F0.0
tp295
tp296
a(F0.4
F0.7272727272727273
(I148
F0.4
F0.7272727272727273
tp297
tp298
a(F0.5714285714285714
F0.8846153846153846
(I149
F0.5714285714285714
F0.8846153846153846
tp299
tp300
a(F0.9
F0.6
(I150
F0.9
F0.6
tp301
tp302
a(F0.8863636363636364
F0.5833333333333334
(I151
F0.8863636363636364
F0.5833333333333334
tp303
tp304
a(F0.9787234042553191
F0.9375
(I152
F0.9787234042553191
F0.9375
tp305
tp306
a(F0.625
F0.8875
(I153
F0.625
F0.8875
tp307
tp308
a(F0.9166666666666666
F0.6666666666666666
(I154
F0.9166666666666666
F0.6666666666666666
tp309
tp310
a(F0.7692307692307693
F0.0
(I155
F0.7692307692307693
F0.0
tp311
tp312
a(F0.9508196721311475
F0.75
(I156
F0.9508196721311475
F0.75
tp313
tp314
a(F0.625
F0.0
(I157
F0.625
F0.0
tp315
tp316
a(F0.08
F0.6290322580645161
(I158
F0.08
F0.6290322580645161
tp317
tp318
a(F0.6326530612244898
F0.0
(I159
F0.6326530612244898
F0.0
tp319
tp320
a(F0.6666666666666666
F0.7878787878787878
(I160
F0.6666666666666666
F0.7878787878787878
tp321
tp322
a(F0.9375
F0.7
(I161
F0.9375
F0.7
tp323
tp324
a(F0.8048780487804879
F0.2727272727272727
(I162
F0.8048780487804879
F0.2727272727272727
tp325
tp326
a(F0.07142857142857142
F0.6666666666666666
(I163
F0.07142857142857142
F0.6666666666666666
tp327
tp328
a(F0.7777777777777778
F0.23076923076923078
(I164
F0.7777777777777778
F0.23076923076923078
tp329
tp330
a(F0.9038461538461539
F0.5
(I165
F0.9038461538461539
F0.5
tp331
tp332
a(F0.5
F0.9024390243902439
(I166
F0.5
F0.9024390243902439
tp333
tp334
a(F0.8863636363636364
F0.6428571428571429
(I167
F0.8863636363636364
F0.6428571428571429
tp335
tp336
a(F0.3333333333333333
F0.7681159420289855
(I168
F0.3333333333333333
F0.7681159420289855
tp337
tp338
a(F0.4857142857142857
F0.21739130434782608
(I169
F0.4857142857142857
F0.21739130434782608
tp339
tp340
a(F0.8392857142857143
F0.47058823529411764
(I170
F0.8392857142857143
F0.47058823529411764
tp341
tp342
a(F0.7115384615384616
F0.34782608695652173
(I171
F0.7115384615384616
F0.34782608695652173
tp343
tp344
a(F0.875
F0.45454545454545453
(I172
F0.875
F0.45454545454545453
tp345
tp346
a(F0.8333333333333334
F0.25
(I173
F0.8333333333333334
F0.25
tp347
tp348
a(F0.9310344827586207
F0.7142857142857143
(I174
F0.9310344827586207
F0.7142857142857143
tp349
tp350
a(F0.7368421052631579
F0.09090909090909091
(I175
F0.7368421052631579
F0.09090909090909091
tp351
tp352
a(F0.9166666666666666
F0.0
(I176
F0.9166666666666666
F0.0
tp353
tp354
a(F0.8870967741935484
F0.4166666666666667
(I177
F0.8870967741935484
F0.4166666666666667
tp355
tp356
a(F0.6842105263157895
F0.1
(I178
F0.6842105263157895
F0.1
tp357
tp358
a(F0.7380952380952381
F0.08333333333333333
(I179
F0.7380952380952381
F0.08333333333333333
tp359
tp360
a(F0.8852459016393442
F0.0
(I180
F0.8852459016393442
F0.0
tp361
tp362
a(F0.8936170212765957
F0.2857142857142857
(I181
F0.8936170212765957
F0.2857142857142857
tp363
tp364
a.