(lp0
(F0.8070175438596491
F0.26666666666666666
(I0
F0.8070175438596491
F0.26666666666666666
tp1
tp2
a(F0.6
F0.65625
(I1
F0.6
F0.65625
tp3
tp4
a(F0.5606060606060606
F0.81875
(I2
F0.5606060606060606
F0.81875
tp5
tp6
a(F0.28205128205128205
F0.3333333333333333
(I3
F0.28205128205128205
F0.3333333333333333
tp7
tp8
a(F0.9508196721311475
F0.7272727272727273
(I4
F0.9508196721311475
F0.7272727272727273
tp9
tp10
a(F0.7833333333333333
F0.0
(I5
F0.7833333333333333
F0.0
tp11
tp12
a(F0.7538461538461538
F0.2727272727272727
(I6
F0.7538461538461538
F0.2727272727272727
tp13
tp14
a(F0.8367346938775511
F0.38461538461538464
(I7
F0.8367346938775511
F0.38461538461538464
tp15
tp16
a(F0.6
F0.3076923076923077
(I8
F0.6
F0.3076923076923077
tp17
tp18
a(F0.4186046511627907
F0.0
(I9
F0.4186046511627907
F0.0
tp19
tp20
a(F0.5897435897435898
F0.9006211180124224
(I10
F0.5897435897435898
F0.9006211180124224
tp21
tp22
a(F0.8666666666666667
F0.8260869565217391
(I11
F0.8666666666666667
F0.8260869565217391
tp23
tp24
a(F0.6323529411764706
F0.5967741935483871
(I12
F0.6323529411764706
F0.5967741935483871
tp25
tp26
a(F0.7708333333333334
F0.6071428571428571
(I13
F0.7708333333333334
F0.6071428571428571
tp27
tp28
a(F0.9807692307692307
F0.8
(I14
F0.9807692307692307
F0.8
tp29
tp30
a(F0.9705882352941176
F0.8888888888888888
(I15
F0.9705882352941176
F0.8888888888888888
tp31
tp32
a(F0.9259259259259259
F0.7894736842105263
(I16
F0.9259259259259259
F0.7894736842105263
tp33
tp34
a(F0.5675675675675675
F0.15789473684210525
(I17
F0.5675675675675675
F0.15789473684210525
tp35
tp36
a(F0.9375
F0.8823529411764706
(I18
F0.9375
F0.8823529411764706
tp37
tp38
a(F0.7424242424242424
F0.0
(I19
F0.7424242424242424
F0.0
tp39
tp40
a(F0.5714285714285714
F0.6896551724137931
(I20
F0.5714285714285714
F0.6896551724137931
tp41
tp42
a(F0.5409836065573771
F0.36363636363636365
(I21
F0.5409836065573771
F0.36363636363636365
tp43
tp44
a(F0.509090909090909
F0.4
(I22
F0.509090909090909
F0.4
tp45
tp46
a(F0.9607843137254902
F0.9090909090909091
(I23
F0.9607843137254902
F0.9090909090909091
tp47
tp48
a(F0.7222222222222222
F0.11764705882352941
(I24
F0.7222222222222222
F0.11764705882352941
tp49
tp50
a(F0.8717948717948718
F0.5454545454545454
(I25
F0.8717948717948718
F0.5454545454545454
tp51
tp52
a(F0.8409090909090909
F0.6111111111111112
(I26
F0.8409090909090909
F0.6111111111111112
tp53
tp54
a(F0.19230769230769232
F0.6557377049180327
(I27
F0.19230769230769232
F0.6557377049180327
tp55
tp56
a(F0.7741935483870968
F0.0
(I28
F0.7741935483870968
F0.0
tp57
tp58
a(F0.7692307692307693
F0.1
(I29
F0.7692307692307693
F0.1
tp59
tp60
a(F0.926829268292683
F0.0
(I30
F0.926829268292683
F0.0
tp61
tp62
a(F0.8160919540229885
F0.0
(I31
F0.8160919540229885
F0.0
tp63
tp64
a(F0.49333333333333335
F0.02564102564102564
(I32
F0.49333333333333335
F0.02564102564102564
tp65
tp66
a(F0.7948717948717948
F0.0
(I33
F0.7948717948717948
F0.0
tp67
tp68
a(F0.8125
F0.0
(I34
F0.8125
F0.0
tp69
tp70
a(F0.7916666666666666
F0.0
(I35
F0.7916666666666666
F0.0
tp71
tp72
a(F0.8641975308641975
F0.56
(I36
F0.8641975308641975
F0.56
tp73
tp74
a(F0.7857142857142857
F0.05263157894736842
(I37
F0.7857142857142857
F0.05263157894736842
tp75
tp76
a(F0.7294117647058823
F0.0
(I38
F0.7294117647058823
F0.0
tp77
tp78
a(F0.7872340425531915
F0.0
(I39
F0.7872340425531915
F0.0
tp79
tp80
a(F0.7619047619047619
F0.0
(I40
F0.7619047619047619
F0.0
tp81
tp82
a(F0.8275862068965517
F0.0
(I41
F0.8275862068965517
F0.0
tp83
tp84
a(F0.9166666666666666
F0.45454545454545453
(I42
F0.9166666666666666
F0.45454545454545453
tp85
tp86
a(F0.8863636363636364
F0.375
(I43
F0.8863636363636364
F0.375
tp87
tp88
a(F0.6571428571428571
F0.4782608695652174
(I44
F0.6571428571428571
F0.4782608695652174
tp89
tp90
a(F0.8448275862068966
F0.1
(I45
F0.8448275862068966
F0.1
tp91
tp92
a(F0.8571428571428571
F0.0
(I46
F0.8571428571428571
F0.0
tp93
tp94
a(F0.7608695652173914
F0.0
(I47
F0.7608695652173914
F0.0
tp95
tp96
a(F0.9090909090909091
F0.5
(I48
F0.9090909090909091
F0.5
tp97
tp98
a(F0.7045454545454546
F0.0
(I49
F0.7045454545454546
F0.0
tp99
tp100
a(F0.8636363636363636
F0.0
(I50
F0.8636363636363636
F0.0
tp101
tp102
a(F0.8313253012048193
F0.3
(I51
F0.8313253012048193
F0.3
tp103
tp104
a(F0.7222222222222222
F0.0625
(I52
F0.7222222222222222
F0.0625
tp105
tp106
a(F0.8314606741573034
F0.0
(I53
F0.8314606741573034
F0.0
tp107
tp108
a(F0.9176470588235294
F0.46153846153846156
(I54
F0.9176470588235294
F0.46153846153846156
tp109
tp110
a(F0.76
F0.0
(I55
F0.76
F0.0
tp111
tp112
a(F0.654320987654321
F0.0
(I56
F0.654320987654321
F0.0
tp113
tp114
a(F0.8470588235294118
F0.13333333333333333
(I57
F0.8470588235294118
F0.13333333333333333
tp115
tp116
a(F0.14492753623188406
F0.0
(I58
F0.14492753623188406
F0.0
tp117
tp118
a(F0.6785714285714286
F0.1
(I59
F0.6785714285714286
F0.1
tp119
tp120
a(F0.9696969696969697
F0.5
(I60
F0.9696969696969697
F0.5
tp121
tp122
a(F0.35294117647058826
F0.0
(I61
F0.35294117647058826
F0.0
tp123
tp124
a(F0.6086956521739131
F0.0
(I62
F0.6086956521739131
F0.0
tp125
tp126
a(F0.43859649122807015
F0.23809523809523808
(I63
F0.43859649122807015
F0.23809523809523808
tp127
tp128
a(F0.8285714285714286
F0.25
(I64
F0.8285714285714286
F0.25
tp129
tp130
a(F0.6885245901639344
F0.13636363636363635
(I65
F0.6885245901639344
F0.13636363636363635
tp131
tp132
a(F0.9807692307692307
F0.9166666666666666
(I66
F0.9807692307692307
F0.9166666666666666
tp133
tp134
a(F0.725
F0.21428571428571427
(I67
F0.725
F0.21428571428571427
tp135
tp136
a(F0.609375
F0.038461538461538464
(I68
F0.609375
F0.038461538461538464
tp137
tp138
a(F0.3333333333333333
F0.08108108108108109
(I69
F0.3333333333333333
F0.08108108108108109
tp139
tp140
a(F0.6571428571428571
F0.07692307692307693
(I70
F0.6571428571428571
F0.07692307692307693
tp141
tp142
a(F0.6458333333333334
F0.05555555555555555
(I71
F0.6458333333333334
F0.05555555555555555
tp143
tp144
a(F0.7241379310344828
F0.1111111111111111
(I72
F0.7241379310344828
F0.1111111111111111
tp145
tp146
a(F0.40384615384615385
F0.0
(I73
F0.40384615384615385
F0.0
tp147
tp148
a(F0.8043478260869565
F0.4375
(I74
F0.8043478260869565
F0.4375
tp149
tp150
a(F0.1276595744680851
F0.023809523809523808
(I75
F0.1276595744680851
F0.023809523809523808
tp151
tp152
a(F0.9428571428571428
F0.6
(I76
F0.9428571428571428
F0.6
tp153
tp154
a(F0.40350877192982454
F0.05555555555555555
(I77
F0.40350877192982454
F0.05555555555555555
tp155
tp156
a(F0.5517241379310345
F0.23529411764705882
(I78
F0.5517241379310345
F0.23529411764705882
tp157
tp158
a(F0.27906976744186046
F0.0
(I79
F0.27906976744186046
F0.0
tp159
tp160
a(F0.25
F0.0
(I80
F0.25
F0.0
tp161
tp162
a(F0.33962264150943394
F0.14634146341463414
(I81
F0.33962264150943394
F0.14634146341463414
tp163
tp164
a(F0.9827586206896551
F0.8888888888888888
(I82
F0.9827586206896551
F0.8888888888888888
tp165
tp166
a(F0.8292682926829268
F0.5882352941176471
(I83
F0.8292682926829268
F0.5882352941176471
tp167
tp168
a(F0.7708333333333334
F0.0
(I84
F0.7708333333333334
F0.0
tp169
tp170
a(F0.7735849056603774
F0.25
(I85
F0.7735849056603774
F0.25
tp171
tp172
a(F0.2777777777777778
F0.025
(I86
F0.2777777777777778
F0.025
tp173
tp174
a(F1.0
F1.0
(I87
F1.0
F1.0
tp175
tp176
a(F0.6363636363636364
F0.0
(I88
F0.6363636363636364
F0.0
tp177
tp178
a(F1.0
F1.0
(I89
F1.0
F1.0
tp179
tp180
a(F0.975609756097561
F0.9
(I90
F0.975609756097561
F0.9
tp181
tp182
a(F0.9772727272727273
F0.5
(I91
F0.9772727272727273
F0.5
tp183
tp184
a(F1.0
F1.0
(I92
F1.0
F1.0
tp185
tp186
a(F0.4067796610169492
F0.0
(I93
F0.4067796610169492
F0.0
tp187
tp188
a(F1.0
F1.0
(I94
F1.0
F1.0
tp189
tp190
a(F1.0
F0.0
(I95
F1.0
F0.0
tp191
tp192
a(F0.40625
F0.19148936170212766
(I96
F0.40625
F0.19148936170212766
tp193
tp194
a(F0.9714285714285714
F0.9090909090909091
(I97
F0.9714285714285714
F0.9090909090909091
tp195
tp196
a(F1.0
F1.0
(I98
F1.0
F1.0
tp197
tp198
a(F0.627906976744186
F0.3333333333333333
(I99
F0.627906976744186
F0.3333333333333333
tp199
tp200
a(F0.391304347826087
F0.0
(I100
F0.391304347826087
F0.0
tp201
tp202
a(F0.9666666666666667
F0.8666666666666667
(I101
F0.9666666666666667
F0.8666666666666667
tp203
tp204
a(F0.13559322033898305
F0.0
(I102
F0.13559322033898305
F0.0
tp205
tp206
a(F0.9795918367346939
F0.9375
(I103
F0.9795918367346939
F0.9375
tp207
tp208
a(F0.8518518518518519
F0.42857142857142855
(I104
F0.8518518518518519
F0.42857142857142855
tp209
tp210
a(F0.918918918918919
F0.5714285714285714
(I105
F0.918918918918919
F0.5714285714285714
tp211
tp212
a(F0.9736842105263158
F0.8571428571428571
(I106
F0.9736842105263158
F0.8571428571428571
tp213
tp214
a(F1.0
F1.0
(I107
F1.0
F1.0
tp215
tp216
a(F0.5581395348837209
F0.0
(I108
F0.5581395348837209
F0.0
tp217
tp218
a(F0.9824561403508771
F0.875
(I109
F0.9824561403508771
F0.875
tp219
tp220
a(F0.8387096774193549
F0.375
(I110
F0.8387096774193549
F0.375
tp221
tp222
a(F0.5384615384615384
F0.18181818181818182
(I111
F0.5384615384615384
F0.18181818181818182
tp223
tp224
a(F0.8048780487804879
F0.38461538461538464
(I112
F0.8048780487804879
F0.38461538461538464
tp225
tp226
a(F0.8
F0.2
(I113
F0.8
F0.2
tp227
tp228
a(F0.8431372549019608
F0.68
(I114
F0.8431372549019608
F0.68
tp229
tp230
a(F0.9821428571428571
F0.875
(I115
F0.9821428571428571
F0.875
tp231
tp232
a(F0.9705882352941176
F0.9285714285714286
(I116
F0.9705882352941176
F0.9285714285714286
tp233
tp234
a(F0.5555555555555556
F0.09090909090909091
(I117
F0.5555555555555556
F0.09090909090909091
tp235
tp236
a(F0.9795918367346939
F0.8571428571428571
(I118
F0.9795918367346939
F0.8571428571428571
tp237
tp238
a(F0.6875
F0.4117647058823529
(I119
F0.6875
F0.4117647058823529
tp239
tp240
a(F0.7
F0.1
(I120
F0.7
F0.1
tp241
tp242
a(F1.0
F1.0
(I121
F1.0
F1.0
tp243
tp244
a(F0.8627450980392157
F0.125
(I122
F0.8627450980392157
F0.125
tp245
tp246
a(F0.9375
F0.6666666666666666
(I123
F0.9375
F0.6666666666666666
tp247
tp248
a(F0.9821428571428571
F0.9
(I124
F0.9821428571428571
F0.9
tp249
tp250
a(F0.9285714285714286
F0.6666666666666666
(I125
F0.9285714285714286
F0.6666666666666666
tp251
tp252
a(F0.8541666666666666
F0.4166666666666667
(I126
F0.8541666666666666
F0.4166666666666667
tp253
tp254
a(F0.9743589743589743
F0.875
(I127
F0.9743589743589743
F0.875
tp255
tp256
a(F0.975
F0.9333333333333333
(I128
F0.975
F0.9333333333333333
tp257
tp258
a(F1.0
F1.0
(I129
F1.0
F1.0
tp259
tp260
a(F0.9142857142857143
F0.625
(I130
F0.9142857142857143
F0.625
tp261
tp262
a(F0.5
F0.041666666666666664
(I131
F0.5
F0.041666666666666664
tp263
tp264
a(F0.7692307692307693
F0.0
(I132
F0.7692307692307693
F0.0
tp265
tp266
a(F0.9375
F0.8666666666666667
(I133
F0.9375
F0.8666666666666667
tp267
tp268
a(F0.7291666666666666
F0.23529411764705882
(I134
F0.7291666666666666
F0.23529411764705882
tp269
tp270
a(F1.0
F1.0
(I135
F1.0
F1.0
tp271
tp272
a(F0.9
F0.25
(I136
F0.9
F0.25
tp273
tp274
a(F0.65625
F0.26666666666666666
(I137
F0.65625
F0.26666666666666666
tp275
tp276
a(F0.9411764705882353
F0.6666666666666666
(I138
F0.9411764705882353
F0.6666666666666666
tp277
tp278
a(F0.9649122807017544
F0.8823529411764706
(I139
F0.9649122807017544
F0.8823529411764706
tp279
tp280
a(F0.6904761904761905
F0.3157894736842105
(I140
F0.6904761904761905
F0.3157894736842105
tp281
tp282
a(F0.6470588235294118
F0.07692307692307693
(I141
F0.6470588235294118
F0.07692307692307693
tp283
tp284
a(F0.9375
F0.6666666666666666
(I142
F0.9375
F0.6666666666666666
tp285
tp286
a(F0.6956521739130435
F0.3
(I143
F0.6956521739130435
F0.3
tp287
tp288
a(F0.525
F0.2962962962962963
(I144
F0.525
F0.2962962962962963
tp289
tp290
a(F0.9714285714285714
F0.8333333333333334
(I145
F0.9714285714285714
F0.8333333333333334
tp291
tp292
a(F0.24242424242424243
F0.0
(I146
F0.24242424242424243
F0.0
tp293
tp294
a(F0.5740740740740741
F0.14814814814814814
(I147
F0.5740740740740741
F0.14814814814814814
tp295
tp296
a(F0.525
F0.09523809523809523
(I148
F0.525
F0.09523809523809523
tp297
tp298
a(F0.0
F0.0
(I149
F0.0
F0.0
tp299
tp300
a(F0.56
F0.0
(I150
F0.56
F0.0
tp301
tp302
a(F0.48484848484848486
F0.0
(I151
F0.48484848484848486
F0.0
tp303
tp304
a(F0.9636363636363636
F0.8461538461538461
(I152
F0.9636363636363636
F0.8461538461538461
tp305
tp306
a(F0.6666666666666666
F0.2857142857142857
(I153
F0.6666666666666666
F0.2857142857142857
tp307
tp308
a(F0.9166666666666666
F0.6153846153846154
(I154
F0.9166666666666666
F0.6153846153846154
tp309
tp310
a(F0.8888888888888888
F0.3333333333333333
(I155
F0.8888888888888888
F0.3333333333333333
tp311
tp312
a(F0.29411764705882354
F0.12195121951219512
(I156
F0.29411764705882354
F0.12195121951219512
tp313
tp314
a(F1.0
F1.0
(I157
F1.0
F1.0
tp315
tp316
a(F0.38636363636363635
F0.12903225806451613
(I158
F0.38636363636363635
F0.12903225806451613
tp317
tp318
a(F0.9230769230769231
F0.5714285714285714
(I159
F0.9230769230769231
F0.5714285714285714
tp319
tp320
a(F0.9347826086956522
F0.5
(I160
F0.9347826086956522
F0.5
tp321
tp322
a(F0.6410256410256411
F0.06666666666666667
(I161
F0.6410256410256411
F0.06666666666666667
tp323
tp324
a(F0.8793103448275862
F0.631578947368421
(I162
F0.8793103448275862
F0.631578947368421
tp325
tp326
a(F0.9230769230769231
F0.6363636363636364
(I163
F0.9230769230769231
F0.6363636363636364
tp327
tp328
a(F0.8787878787878788
F0.2
(I164
F0.8787878787878788
F0.2
tp329
tp330
a(F0.7258064516129032
F0.2608695652173913
(I165
F0.7258064516129032
F0.2608695652173913
tp331
tp332
a(F0.2631578947368421
F0.0
(I166
F0.2631578947368421
F0.0
tp333
tp334
a(F0.896551724137931
F0.625
(I167
F0.896551724137931
F0.625
tp335
tp336
a(F0.975609756097561
F0.875
(I168
F0.975609756097561
F0.875
tp337
tp338
a(F0.21739130434782608
F0.02702702702702703
(I169
F0.21739130434782608
F0.02702702702702703
tp339
tp340
a(F0.7959183673469388
F0.6153846153846154
(I170
F0.7959183673469388
F0.6153846153846154
tp341
tp342
a(F0.85
F0.5384615384615384
(I171
F0.85
F0.5384615384615384
tp343
tp344
a(F0.868421052631579
F0.4444444444444444
(I172
F0.868421052631579
F0.4444444444444444
tp345
tp346
a(F0.3170731707317073
F0.125
(I173
F0.3170731707317073
F0.125
tp347
tp348
a(F0.8679245283018868
F0.36363636363636365
(I174
F0.8679245283018868
F0.36363636363636365
tp349
tp350
a(F0.9298245614035088
F0.6
(I175
F0.9298245614035088
F0.6
tp351
tp352
a(F0.8235294117647058
F0.0
(I176
F0.8235294117647058
F0.0
tp353
tp354
a(F0.7910447761194029
F0.0
(I177
F0.7910447761194029
F0.0
tp355
tp356
a(F0.7948717948717948
F0.058823529411764705
(I178
F0.7948717948717948
F0.058823529411764705
tp357
tp358
a(F0.8933333333333333
F0.3333333333333333
(I179
F0.8933333333333333
F0.3333333333333333
tp359
tp360
a(F0.8428571428571429
F0.15384615384615385
(I180
F0.8428571428571429
F0.15384615384615385
tp361
tp362
a(F0.8478260869565217
F0.3
(I181
F0.8478260869565217
F0.3
tp363
tp364
a(F0.9315068493150684
F0.2857142857142857
(I182
F0.9315068493150684
F0.2857142857142857
tp365
tp366
a(F0.9305555555555556
F0.4444444444444444
(I183
F0.9305555555555556
F0.4444444444444444
tp367
tp368
a(F0.9259259259259259
F0.25
(I184
F0.9259259259259259
F0.25
tp369
tp370
a(F0.8709677419354839
F0.3333333333333333
(I185
F0.8709677419354839
F0.3333333333333333
tp371
tp372
a(F0.8653846153846154
F0.0
(I186
F0.8653846153846154
F0.0
tp373
tp374
a(F0.9242424242424242
F0.4444444444444444
(I187
F0.9242424242424242
F0.4444444444444444
tp375
tp376
a(F0.7419354838709677
F0.0
(I188
F0.7419354838709677
F0.0
tp377
tp378
a(F0.8787878787878788
F0.2
(I189
F0.8787878787878788
F0.2
tp379
tp380
a(F0.8732394366197183
F0.18181818181818182
(I190
F0.8732394366197183
F0.18181818181818182
tp381
tp382
a(F0.6103896103896104
F0.0
(I191
F0.6103896103896104
F0.0
tp383
tp384
a(F0.9393939393939394
F0.7142857142857143
(I192
F0.9393939393939394
F0.7142857142857143
tp385
tp386
a(F0.8108108108108109
F0.06666666666666667
(I193
F0.8108108108108109
F0.06666666666666667
tp387
tp388
a(F0.8723404255319149
F0.14285714285714285
(I194
F0.8723404255319149
F0.14285714285714285
tp389
tp390
a(F0.9342105263157895
F0.16666666666666666
(I195
F0.9342105263157895
F0.16666666666666666
tp391
tp392
a(F0.8823529411764706
F0.2727272727272727
(I196
F0.8823529411764706
F0.2727272727272727
tp393
tp394
a(F0.95
F0.25
(I197
F0.95
F0.25
tp395
tp396
a(F1.0
F1.0
(I198
F1.0
F1.0
tp397
tp398
a(F0.8292682926829268
F0.0
(I199
F0.8292682926829268
F0.0
tp399
tp400
a(F0.9411764705882353
F0.5
(I200
F0.9411764705882353
F0.5
tp401
tp402
a(F0.9459459459459459
F0.8
(I201
F0.9459459459459459
F0.8
tp403
tp404
a(F0.96875
F0.75
(I202
F0.96875
F0.75
tp405
tp406
a(F0.9636363636363636
F0.3333333333333333
(I203
F0.9636363636363636
F0.3333333333333333
tp407
tp408
a(F0.9
F0.25
(I204
F0.9
F0.25
tp409
tp410
a(F0.9736842105263158
F0.875
(I205
F0.9736842105263158
F0.875
tp411
tp412
a(F0.8076923076923077
F0.16666666666666666
(I206
F0.8076923076923077
F0.16666666666666666
tp413
tp414
a(F0.9210526315789473
F0.5
(I207
F0.9210526315789473
F0.5
tp415
tp416
a(F0.9090909090909091
F0.625
(I208
F0.9090909090909091
F0.625
tp417
tp418
a(F0.8194444444444444
F0.0
(I209
F0.8194444444444444
F0.0
tp419
tp420
a(F0.9574468085106383
F0.75
(I210
F0.9574468085106383
F0.75
tp421
tp422
a(F0.9836065573770492
F0.875
(I211
F0.9836065573770492
F0.875
tp423
tp424
a(F1.0
F1.0
(I212
F1.0
F1.0
tp425
tp426
a(F0.9142857142857143
F0.25
(I213
F0.9142857142857143
F0.25
tp427
tp428
a(F0.9295774647887324
F0.2857142857142857
(I214
F0.9295774647887324
F0.2857142857142857
tp429
tp430
a(F0.8266666666666667
F0.07142857142857142
(I215
F0.8266666666666667
F0.07142857142857142
tp431
tp432
a(F0.9838709677419355
F0.75
(I216
F0.9838709677419355
F0.75
tp433
tp434
a(F0.9868421052631579
F0.8
(I217
F0.9868421052631579
F0.8
tp435
tp436
a(F0.9125
F0.125
(I218
F0.9125
F0.125
tp437
tp438
a(F0.8888888888888888
F0.0
(I219
F0.8888888888888888
F0.0
tp439
tp440
a(F0.9859154929577465
F0.8
(I220
F0.9859154929577465
F0.8
tp441
tp442
a(F0.825
F0.0
(I221
F0.825
F0.0
tp443
tp444
a(F0.9714285714285714
F0.3333333333333333
(I222
F0.9714285714285714
F0.3333333333333333
tp445
tp446
a(F0.9666666666666667
F0.6666666666666666
(I223
F0.9666666666666667
F0.6666666666666666
tp447
tp448
a(F0.8873239436619719
F0.0
(I224
F0.8873239436619719
F0.0
tp449
tp450
a(F0.9090909090909091
F0.0
(I225
F0.9090909090909091
F0.0
tp451
tp452
a(F0.8351648351648352
F0.0
(I226
F0.8351648351648352
F0.0
tp453
tp454
a(F0.8
F0.2
(I227
F0.8
F0.2
tp455
tp456
a(F0.9761904761904762
F0.8
(I228
F0.9761904761904762
F0.8
tp457
tp458
a(F0.967741935483871
F0.5
(I229
F0.967741935483871
F0.5
tp459
tp460
a(F0.8554216867469879
F0.0
(I230
F0.8554216867469879
F0.0
tp461
tp462
a.