(lp0
(F1.0
F1.0
(I0
F1.0
F1.0
tp1
tp2
a(F0.7164179104477612
F0.05
(I1
F0.7164179104477612
F0.05
tp3
tp4
a(F1.0
F1.0
(I2
F1.0
F1.0
tp5
tp6
a(F1.0
F1.0
(I3
F1.0
F1.0
tp7
tp8
a(F1.0
F1.0
(I4
F1.0
F1.0
tp9
tp10
a(F0.9493670886075949
F0.5555555555555556
(I5
F0.9493670886075949
F0.5555555555555556
tp11
tp12
a(F1.0
F1.0
(I6
F1.0
F1.0
tp13
tp14
a(F1.0
F1.0
(I7
F1.0
F1.0
tp15
tp16
a(F0.9157894736842105
F0.5294117647058824
(I8
F0.9157894736842105
F0.5294117647058824
tp17
tp18
a(F0.9743589743589743
F0.8
(I9
F0.9743589743589743
F0.8
tp19
tp20
a(F0.9885057471264368
F0.8333333333333334
(I10
F0.9885057471264368
F0.8333333333333334
tp21
tp22
a(F1.0
F1.0
(I11
F1.0
F1.0
tp23
tp24
a(F1.0
F1.0
(I12
F1.0
F1.0
tp25
tp26
a(F0.9142857142857143
F0.25
(I13
F0.9142857142857143
F0.25
tp27
tp28
a(F0.9705882352941176
F0.3333333333333333
(I14
F0.9705882352941176
F0.3333333333333333
tp29
tp30
a(F0.9444444444444444
F0.5
(I15
F0.9444444444444444
F0.5
tp31
tp32
a(F0.9397590361445783
F0.5833333333333334
(I16
F0.9397590361445783
F0.5833333333333334
tp33
tp34
a(F0.9775280898876404
F0.6
(I17
F0.9775280898876404
F0.6
tp35
tp36
a(F0.9523809523809523
F0.5
(I18
F0.9523809523809523
F0.5
tp37
tp38
a(F1.0
F1.0
(I19
F1.0
F1.0
tp39
tp40
a(F0.875
F0.16666666666666666
(I20
F0.875
F0.16666666666666666
tp41
tp42
a(F1.0
F1.0
(I21
F1.0
F1.0
tp43
tp44
a(F1.0
F1.0
(I22
F1.0
F1.0
tp45
tp46
a(F1.0
F1.0
(I23
F1.0
F1.0
tp47
tp48
a(F0.9594594594594594
F0.4
(I24
F0.9594594594594594
F0.4
tp49
tp50
a(F0.8727272727272727
F0.36363636363636365
(I25
F0.8727272727272727
F0.36363636363636365
tp51
tp52
a(F0.8
F0.2727272727272727
(I26
F0.8
F0.2727272727272727
tp53
tp54
a(F0.9322033898305084
F0.3333333333333333
(I27
F0.9322033898305084
F0.3333333333333333
tp55
tp56
a(F0.8333333333333334
F0.2
(I28
F0.8333333333333334
F0.2
tp57
tp58
a(F0.8253968253968254
F0.15384615384615385
(I29
F0.8253968253968254
F0.15384615384615385
tp59
tp60
a(F0.3793103448275862
F0.0
(I30
F0.3793103448275862
F0.0
tp61
tp62
a(F0.8431372549019608
F0.1111111111111111
(I31
F0.8431372549019608
F0.1111111111111111
tp63
tp64
a(F0.8787878787878788
F0.2
(I32
F0.8787878787878788
F0.2
tp65
tp66
a(F0.7575757575757576
F0.0
(I33
F0.7575757575757576
F0.0
tp67
tp68
a(F0.8888888888888888
F0.0
(I34
F0.8888888888888888
F0.0
tp69
tp70
a(F0.7205882352941176
F0.05
(I35
F0.7205882352941176
F0.05
tp71
tp72
a(F0.9016393442622951
F0.4
(I36
F0.9016393442622951
F0.4
tp73
tp74
a(F0.8235294117647058
F0.0
(I37
F0.8235294117647058
F0.0
tp75
tp76
a(F0.9402985074626866
F0.2
(I38
F0.9402985074626866
F0.2
tp77
tp78
a(F0.7608695652173914
F0.15384615384615385
(I39
F0.7608695652173914
F0.15384615384615385
tp79
tp80
a(F0.9032258064516129
F0.0
(I40
F0.9032258064516129
F0.0
tp81
tp82
a(F0.8888888888888888
F0.25
(I41
F0.8888888888888888
F0.25
tp83
tp84
a(F0.7931034482758621
F0.0
(I42
F0.7931034482758621
F0.0
tp85
tp86
a(F0.875
F0.3333333333333333
(I43
F0.875
F0.3333333333333333
tp87
tp88
a(F1.0
F1.0
(I44
F1.0
F1.0
tp89
tp90
a(F0.9508196721311475
F0.25
(I45
F0.9508196721311475
F0.25
tp91
tp92
a(F0.7111111111111111
F0.0
(I46
F0.7111111111111111
F0.0
tp93
tp94
a(F0.9387755102040817
F0.625
(I47
F0.9387755102040817
F0.625
tp95
tp96
a(F0.8181818181818182
F0.0
(I48
F0.8181818181818182
F0.0
tp97
tp98
a(F0.8055555555555556
F0.0
(I49
F0.8055555555555556
F0.0
tp99
tp100
a(F1.0
F1.0
(I50
F1.0
F1.0
tp101
tp102
a(F0.9672131147540983
F0.6666666666666666
(I51
F0.9672131147540983
F0.6666666666666666
tp103
tp104
a(F0.7666666666666667
F0.06666666666666667
(I52
F0.7666666666666667
F0.06666666666666667
tp105
tp106
a(F0.8307692307692308
F0.15384615384615385
(I53
F0.8307692307692308
F0.15384615384615385
tp107
tp108
a(F0.8947368421052632
F0.14285714285714285
(I54
F0.8947368421052632
F0.14285714285714285
tp109
tp110
a(F0.782608695652174
F0.2857142857142857
(I55
F0.782608695652174
F0.2857142857142857
tp111
tp112
a(F0.8387096774193549
F0.16666666666666666
(I56
F0.8387096774193549
F0.16666666666666666
tp113
tp114
a(F0.9852941176470589
F0.8888888888888888
(I57
F0.9852941176470589
F0.8888888888888888
tp115
tp116
a(F1.0
F1.0
(I58
F1.0
F1.0
tp117
tp118
a(F0.8918918918918919
F0.2
(I59
F0.8918918918918919
F0.2
tp119
tp120
a(F1.0
F1.0
(I60
F1.0
F1.0
tp121
tp122
a(F1.0
F1.0
(I61
F1.0
F1.0
tp123
tp124
a(F1.0
F1.0
(I62
F1.0
F1.0
tp125
tp126
a(F1.0
F1.0
(I63
F1.0
F1.0
tp127
tp128
a(F1.0
F1.0
(I64
F1.0
F1.0
tp129
tp130
a(F0.984375
F0.875
(I65
F0.984375
F0.875
tp131
tp132
a(F1.0
F1.0
(I66
F1.0
F1.0
tp133
tp134
a(F1.0
F1.0
(I67
F1.0
F1.0
tp135
tp136
a(F1.0
F1.0
(I68
F1.0
F1.0
tp137
tp138
a(F0.9857142857142858
F0.8333333333333334
(I69
F0.9857142857142858
F0.8333333333333334
tp139
tp140
a(F1.0
F1.0
(I70
F1.0
F1.0
tp141
tp142
a(F0.7936507936507936
F0.13333333333333333
(I71
F0.7936507936507936
F0.13333333333333333
tp143
tp144
a(F0.9710144927536232
F0.75
(I72
F0.9710144927536232
F0.75
tp145
tp146
a(F1.0
F1.0
(I73
F1.0
F1.0
tp147
tp148
a(F1.0
F1.0
(I74
F1.0
F1.0
tp149
tp150
a(F1.0
F1.0
(I75
F1.0
F1.0
tp151
tp152
a(F0.9523809523809523
F0.5
(I76
F0.9523809523809523
F0.5
tp153
tp154
a(F1.0
F1.0
(I77
F1.0
F1.0
tp155
tp156
a(F0.9850746268656716
F0.8
(I78
F0.9850746268656716
F0.8
tp157
tp158
a(F1.0
F1.0
(I79
F1.0
F1.0
tp159
tp160
a(F1.0
F1.0
(I80
F1.0
F1.0
tp161
tp162
a(F1.0
F1.0
(I81
F1.0
F1.0
tp163
tp164
a(F1.0
F1.0
(I82
F1.0
F1.0
tp165
tp166
a(F1.0
F1.0
(I83
F1.0
F1.0
tp167
tp168
a(F1.0
F1.0
(I84
F1.0
F1.0
tp169
tp170
a(F0.7959183673469388
F0.0
(I85
F0.7959183673469388
F0.0
tp171
tp172
a(F0.9245283018867925
F0.7333333333333333
(I86
F0.9245283018867925
F0.7333333333333333
tp173
tp174
a(F0.9166666666666666
F0.2857142857142857
(I87
F0.9166666666666666
F0.2857142857142857
tp175
tp176
a(F0.9841269841269841
F0.8571428571428571
(I88
F0.9841269841269841
F0.8571428571428571
tp177
tp178
a(F0.9038461538461539
F0.5833333333333334
(I89
F0.9038461538461539
F0.5833333333333334
tp179
tp180
a(F0.7027027027027027
F0.0
(I90
F0.7027027027027027
F0.0
tp181
tp182
a(F0.8536585365853658
F0.0
(I91
F0.8536585365853658
F0.0
tp183
tp184
a(F0.8253968253968254
F0.08333333333333333
(I92
F0.8253968253968254
F0.08333333333333333
tp185
tp186
a(F0.868421052631579
F0.2857142857142857
(I93
F0.868421052631579
F0.2857142857142857
tp187
tp188
a(F0.9090909090909091
F0.8125
(I94
F0.9090909090909091
F0.8125
tp189
tp190
a(F0.8444444444444444
F0.0
(I95
F0.8444444444444444
F0.0
tp191
tp192
a(F0.8607594936708861
F0.21428571428571427
(I96
F0.8607594936708861
F0.21428571428571427
tp193
tp194
a(F0.9506172839506173
F0.5
(I97
F0.9506172839506173
F0.5
tp195
tp196
a(F0.9230769230769231
F0.125
(I98
F0.9230769230769231
F0.125
tp197
tp198
a(F0.8860759493670886
F0.0
(I99
F0.8860759493670886
F0.0
tp199
tp200
a(F0.8627450980392157
F0.3
(I100
F0.8627450980392157
F0.3
tp201
tp202
a(F0.7777777777777778
F0.14285714285714285
(I101
F0.7777777777777778
F0.14285714285714285
tp203
tp204
a(F0.6595744680851063
F0.0
(I102
F0.6595744680851063
F0.0
tp205
tp206
a(F0.9411764705882353
F0.2857142857142857
(I103
F0.9411764705882353
F0.2857142857142857
tp207
tp208
a(F0.9397590361445783
F0.2857142857142857
(I104
F0.9397590361445783
F0.2857142857142857
tp209
tp210
a(F0.9743589743589743
F0.6666666666666666
(I105
F0.9743589743589743
F0.6666666666666666
tp211
tp212
a(F0.8055555555555556
F0.0
(I106
F0.8055555555555556
F0.0
tp213
tp214
a(F0.8493150684931506
F0.15384615384615385
(I107
F0.8493150684931506
F0.15384615384615385
tp215
tp216
a(F1.0
F1.0
(I108
F1.0
F1.0
tp217
tp218
a(F0.8113207547169812
F0.16666666666666666
(I109
F0.8113207547169812
F0.16666666666666666
tp219
tp220
a(F0.9166666666666666
F0.5
(I110
F0.9166666666666666
F0.5
tp221
tp222
a(F0.8676470588235294
F0.3076923076923077
(I111
F0.8676470588235294
F0.3076923076923077
tp223
tp224
a(F0.8611111111111112
F0.0
(I112
F0.8611111111111112
F0.0
tp225
tp226
a(F0.8717948717948718
F0.09090909090909091
(I113
F0.8717948717948718
F0.09090909090909091
tp227
tp228
a(F0.9871794871794872
F0.75
(I114
F0.9871794871794872
F0.75
tp229
tp230
a(F0.9814814814814815
F0.5
(I115
F0.9814814814814815
F0.5
tp231
tp232
a(F1.0
F1.0
(I116
F1.0
F1.0
tp233
tp234
a(F0.9866666666666667
F0.9090909090909091
(I117
F0.9866666666666667
F0.9090909090909091
tp235
tp236
a(F0.9696969696969697
F0.8333333333333334
(I118
F0.9696969696969697
F0.8333333333333334
tp237
tp238
a(F1.0
F1.0
(I119
F1.0
F1.0
tp239
tp240
a(F1.0
F1.0
(I120
F1.0
F1.0
tp241
tp242
a(F1.0
F1.0
(I121
F1.0
F1.0
tp243
tp244
a(F0.9733333333333334
F0.5
(I122
F0.9733333333333334
F0.5
tp245
tp246
a(F0.5875
F0.029411764705882353
(I123
F0.5875
F0.029411764705882353
tp247
tp248
a(F1.0
F1.0
(I124
F1.0
F1.0
tp249
tp250
a(F1.0
F1.0
(I125
F1.0
F1.0
tp251
tp252
a(F1.0
F1.0
(I126
F1.0
F1.0
tp253
tp254
a(F1.0
F1.0
(I127
F1.0
F1.0
tp255
tp256
a(F0.9411764705882353
F0.16666666666666666
(I128
F0.9411764705882353
F0.16666666666666666
tp257
tp258
a(F1.0
F1.0
(I129
F1.0
F1.0
tp259
tp260
a(F0.9607843137254902
F0.6
(I130
F0.9607843137254902
F0.6
tp261
tp262
a(F1.0
F1.0
(I131
F1.0
F1.0
tp263
tp264
a(F1.0
F1.0
(I132
F1.0
F1.0
tp265
tp266
a(F0.9777777777777777
F0.5
(I133
F0.9777777777777777
F0.5
tp267
tp268
a(F1.0
F1.0
(I134
F1.0
F1.0
tp269
tp270
a(F1.0
F1.0
(I135
F1.0
F1.0
tp271
tp272
a(F1.0
F1.0
(I136
F1.0
F1.0
tp273
tp274
a(F1.0
F1.0
(I137
F1.0
F1.0
tp275
tp276
a(F0.9857142857142858
F0.75
(I138
F0.9857142857142858
F0.75
tp277
tp278
a(F1.0
F1.0
(I139
F1.0
F1.0
tp279
tp280
a(F1.0
F1.0
(I140
F1.0
F1.0
tp281
tp282
a(F1.0
F1.0
(I141
F1.0
F1.0
tp283
tp284
a(F0.9516129032258065
F0.8333333333333334
(I142
F0.9516129032258065
F0.8333333333333334
tp285
tp286
a(F0.8695652173913043
F0.0
(I143
F0.8695652173913043
F0.0
tp287
tp288
a(F0.8837209302325582
F0.2857142857142857
(I144
F0.8837209302325582
F0.2857142857142857
tp289
tp290
a(F0.9436619718309859
F0.7142857142857143
(I145
F0.9436619718309859
F0.7142857142857143
tp291
tp292
a(F0.9459459459459459
F0.2
(I146
F0.9459459459459459
F0.2
tp293
tp294
a(F0.9487179487179487
F0.0
(I147
F0.9487179487179487
F0.0
tp295
tp296
a(F0.9230769230769231
F0.0
(I148
F0.9230769230769231
F0.0
tp297
tp298
a(F0.9102564102564102
F0.0
(I149
F0.9102564102564102
F0.0
tp299
tp300
a(F0.925
F0.88
(I150
F0.925
F0.88
tp301
tp302
a(F0.7872340425531915
F0.2857142857142857
(I151
F0.7872340425531915
F0.2857142857142857
tp303
tp304
a(F0.9342105263157895
F0.2857142857142857
(I152
F0.9342105263157895
F0.2857142857142857
tp305
tp306
a(F0.9102564102564102
F0.6956521739130435
(I153
F0.9102564102564102
F0.6956521739130435
tp307
tp308
a(F0.8461538461538461
F0.07692307692307693
(I154
F0.8461538461538461
F0.07692307692307693
tp309
tp310
a(F0.8163265306122449
F0.1
(I155
F0.8163265306122449
F0.1
tp311
tp312
a(F0.9333333333333333
F0.7916666666666666
(I156
F0.9333333333333333
F0.7916666666666666
tp313
tp314
a(F0.935064935064935
F0.5454545454545454
(I157
F0.935064935064935
F0.5454545454545454
tp315
tp316
a(F0.9382716049382716
F0.16666666666666666
(I158
F0.9382716049382716
F0.16666666666666666
tp317
tp318
a(F0.8604651162790697
F0.625
(I159
F0.8604651162790697
F0.625
tp319
tp320
a(F0.95
F0.9361702127659575
(I160
F0.95
F0.9361702127659575
tp321
tp322
a(F0.9710144927536232
F0.5
(I161
F0.9710144927536232
F0.5
tp323
tp324
a(F0.9696969696969697
F0.6666666666666666
(I162
F0.9696969696969697
F0.6666666666666666
tp325
tp326
a(F0.8444444444444444
F0.3
(I163
F0.8444444444444444
F0.3
tp327
tp328
a(F0.8977272727272727
F0.64
(I164
F0.8977272727272727
F0.64
tp329
tp330
a(F0.9552238805970149
F0.8888888888888888
(I165
F0.9552238805970149
F0.8888888888888888
tp331
tp332
a(F0.971830985915493
F0.6666666666666666
(I166
F0.971830985915493
F0.6666666666666666
tp333
tp334
a(F1.0
F1.0
(I167
F1.0
F1.0
tp335
tp336
a(F1.0
F1.0
(I168
F1.0
F1.0
tp337
tp338
a(F0.8888888888888888
F0.1
(I169
F0.8888888888888888
F0.1
tp339
tp340
a(F0.9302325581395349
F0.8
(I170
F0.9302325581395349
F0.8
tp341
tp342
a(F0.9504950495049505
F0.6153846153846154
(I171
F0.9504950495049505
F0.6153846153846154
tp343
tp344
a(F0.96
F0.3333333333333333
(I172
F0.96
F0.3333333333333333
tp345
tp346
a(F0.8426966292134831
F0.125
(I173
F0.8426966292134831
F0.125
tp347
tp348
a(F0.9565217391304348
F0.5555555555555556
(I174
F0.9565217391304348
F0.5555555555555556
tp349
tp350
a(F0.9452054794520548
F0.2
(I175
F0.9452054794520548
F0.2
tp351
tp352
a(F1.0
F1.0
(I176
F1.0
F1.0
tp353
tp354
a(F0.9736842105263158
F0.75
(I177
F0.9736842105263158
F0.75
tp355
tp356
a(F0.9726027397260274
F0.6
(I178
F0.9726027397260274
F0.6
tp357
tp358
a(F0.9041095890410958
F0.125
(I179
F0.9041095890410958
F0.125
tp359
tp360
a(F0.9518072289156626
F0.2
(I180
F0.9518072289156626
F0.2
tp361
tp362
a(F0.9152542372881356
F0.0
(I181
F0.9152542372881356
F0.0
tp363
tp364
a(F0.87
F0.35
(I182
F0.87
F0.35
tp365
tp366
a(F0.9333333333333333
F0.7272727272727273
(I183
F0.9333333333333333
F0.7272727272727273
tp367
tp368
a(F0.8653846153846154
F0.3
(I184
F0.8653846153846154
F0.3
tp369
tp370
a(F0.9473684210526315
F0.2
(I185
F0.9473684210526315
F0.2
tp371
tp372
a(F0.94
F0.14285714285714285
(I186
F0.94
F0.14285714285714285
tp373
tp374
a(F0.948051948051948
F0.2
(I187
F0.948051948051948
F0.2
tp375
tp376
a(F0.8333333333333334
F0.0
(I188
F0.8333333333333334
F0.0
tp377
tp378
a(F0.9850746268656716
F0.8333333333333334
(I189
F0.9850746268656716
F0.8333333333333334
tp379
tp380
a(F1.0
F1.0
(I190
F1.0
F1.0
tp381
tp382
a(F0.9444444444444444
F0.6
(I191
F0.9444444444444444
F0.6
tp383
tp384
a(F0.9772727272727273
F0.5
(I192
F0.9772727272727273
F0.5
tp385
tp386
a(F0.9080459770114943
F0.2
(I193
F0.9080459770114943
F0.2
tp387
tp388
a(F0.9230769230769231
F0.14285714285714285
(I194
F0.9230769230769231
F0.14285714285714285
tp389
tp390
a(F0.9036144578313253
F0.2
(I195
F0.9036144578313253
F0.2
tp391
tp392
a(F0.8714285714285714
F0.0
(I196
F0.8714285714285714
F0.0
tp393
tp394
a(F0.9166666666666666
F0.4
(I197
F0.9166666666666666
F0.4
tp395
tp396
a(F0.9090909090909091
F0.0
(I198
F0.9090909090909091
F0.0
tp397
tp398
a(F0.9791666666666666
F0.6666666666666666
(I199
F0.9791666666666666
F0.6666666666666666
tp399
tp400
a(F0.8461538461538461
F0.16666666666666666
(I200
F0.8461538461538461
F0.16666666666666666
tp401
tp402
a(F0.92
F0.0
(I201
F0.92
F0.0
tp403
tp404
a(F0.9259259259259259
F0.3333333333333333
(I202
F0.9259259259259259
F0.3333333333333333
tp405
tp406
a(F0.9659090909090909
F0.7692307692307693
(I203
F0.9659090909090909
F0.7692307692307693
tp407
tp408
a(F0.9206349206349206
F0.16666666666666666
(I204
F0.9206349206349206
F0.16666666666666666
tp409
tp410
a(F0.9552238805970149
F0.5
(I205
F0.9552238805970149
F0.5
tp411
tp412
a(F1.0
F1.0
(I206
F1.0
F1.0
tp413
tp414
a(F0.9402985074626866
F0.0
(I207
F0.9402985074626866
F0.0
tp415
tp416
a(F0.8867924528301887
F0.3333333333333333
(I208
F0.8867924528301887
F0.3333333333333333
tp417
tp418
a(F0.9850746268656716
F0.9722222222222222
(I209
F0.9850746268656716
F0.9722222222222222
tp419
tp420
a(F0.9714285714285714
F0.8888888888888888
(I210
F0.9714285714285714
F0.8888888888888888
tp421
tp422
a(F1.0
F1.0
(I211
F1.0
F1.0
tp423
tp424
a(F0.7714285714285715
F0.1111111111111111
(I212
F0.7714285714285715
F0.1111111111111111
tp425
tp426
a(F0.868421052631579
F0.16666666666666666
(I213
F0.868421052631579
F0.16666666666666666
tp427
tp428
a(F0.8888888888888888
F0.125
(I214
F0.8888888888888888
F0.125
tp429
tp430
a(F0.9090909090909091
F0.0
(I215
F0.9090909090909091
F0.0
tp431
tp432
a(F0.9285714285714286
F0.5384615384615384
(I216
F0.9285714285714286
F0.5384615384615384
tp433
tp434
a(F0.9069767441860465
F0.0
(I217
F0.9069767441860465
F0.0
tp435
tp436
a(F0.9577464788732394
F0.5714285714285714
(I218
F0.9577464788732394
F0.5714285714285714
tp437
tp438
a(F1.0
F1.0
(I219
F1.0
F1.0
tp439
tp440
a(F0.975
F0.6666666666666666
(I220
F0.975
F0.6666666666666666
tp441
tp442
a(F0.9830508474576272
F0.8333333333333334
(I221
F0.9830508474576272
F0.8333333333333334
tp443
tp444
a(F0.9861111111111112
F0.8333333333333334
(I222
F0.9861111111111112
F0.8333333333333334
tp445
tp446
a(F0.9583333333333334
F0.4
(I223
F0.9583333333333334
F0.4
tp447
tp448
a(F0.9736842105263158
F0.875
(I224
F0.9736842105263158
F0.875
tp449
tp450
a(F0.9382716049382716
F0.375
(I225
F0.9382716049382716
F0.375
tp451
tp452
a(F0.8245614035087719
F0.09090909090909091
(I226
F0.8245614035087719
F0.09090909090909091
tp453
tp454
a(F1.0
F1.0
(I227
F1.0
F1.0
tp455
tp456
a(F0.8
F0.0
(I228
F0.8
F0.0
tp457
tp458
a.