(lp0
(F0.9722222222222222
F0.9333333333333333
(I0
F0.9722222222222222
F0.9333333333333333
tp1
tp2
a(F0.9272727272727272
F0.6923076923076923
(I1
F0.9272727272727272
F0.6923076923076923
tp3
tp4
a(F1.0
F1.0
(I2
F1.0
F1.0
tp5
tp6
a(F0.9803921568627451
F0.9411764705882353
(I3
F0.9803921568627451
F0.9411764705882353
tp7
tp8
a(F1.0
F1.0
(I4
F1.0
F1.0
tp9
tp10
a(F1.0
F1.0
(I5
F1.0
F1.0
tp11
tp12
a(F0.9803921568627451
F0.9375
(I6
F0.9803921568627451
F0.9375
tp13
tp14
a(F0.9807692307692307
F0.8
(I7
F0.9807692307692307
F0.8
tp15
tp16
a(F1.0
F1.0
(I8
F1.0
F1.0
tp17
tp18
a(F0.9777777777777777
F0.9736842105263158
(I9
F0.9777777777777777
F0.9736842105263158
tp19
tp20
a(F0.926829268292683
F0.8125
(I10
F0.926829268292683
F0.8125
tp21
tp22
a(F0.984375
F0.9230769230769231
(I11
F0.984375
F0.9230769230769231
tp23
tp24
a(F0.9545454545454546
F0.9130434782608695
(I12
F0.9545454545454546
F0.9130434782608695
tp25
tp26
a(F1.0
F1.0
(I13
F1.0
F1.0
tp27
tp28
a(F0.9538461538461539
F0.8333333333333334
(I14
F0.9538461538461539
F0.8333333333333334
tp29
tp30
a(F0.975
F0.8888888888888888
(I15
F0.975
F0.8888888888888888
tp31
tp32
a(F0.9838709677419355
F0.9
(I16
F0.9838709677419355
F0.9
tp33
tp34
a(F0.975
F0.9090909090909091
(I17
F0.975
F0.9090909090909091
tp35
tp36
a(F0.9285714285714286
F0.6
(I18
F0.9285714285714286
F0.6
tp37
tp38
a(F0.9777777777777777
F0.96875
(I19
F0.9777777777777777
F0.96875
tp39
tp40
a(F1.0
F1.0
(I20
F1.0
F1.0
tp41
tp42
a(F1.0
F1.0
(I21
F1.0
F1.0
tp43
tp44
a(F1.0
F1.0
(I22
F1.0
F1.0
tp45
tp46
a(F1.0
F1.0
(I23
F1.0
F1.0
tp47
tp48
a(F1.0
F1.0
(I24
F1.0
F1.0
tp49
tp50
a(F1.0
F1.0
(I25
F1.0
F1.0
tp51
tp52
a(F1.0
F1.0
(I26
F1.0
F1.0
tp53
tp54
a(F1.0
F1.0
(I27
F1.0
F1.0
tp55
tp56
a(F0.98
F0.9090909090909091
(I28
F0.98
F0.9090909090909091
tp57
tp58
a(F0.8285714285714286
F0.5384615384615384
(I29
F0.8285714285714286
F0.5384615384615384
tp59
tp60
a(F1.0
F1.0
(I30
F1.0
F1.0
tp61
tp62
a(F0.8888888888888888
F0.75
(I31
F0.8888888888888888
F0.75
tp63
tp64
a(F0.7608695652173914
F0.47619047619047616
(I32
F0.7608695652173914
F0.47619047619047616
tp65
tp66
a(F0.875
F0.6666666666666666
(I33
F0.875
F0.6666666666666666
tp67
tp68
a(F0.9302325581395349
F0.7
(I34
F0.9302325581395349
F0.7
tp69
tp70
a(F0.9
F0.6875
(I35
F0.9
F0.6875
tp71
tp72
a(F1.0
F1.0
(I36
F1.0
F1.0
tp73
tp74
a(F0.9772727272727273
F0.9166666666666666
(I37
F0.9772727272727273
F0.9166666666666666
tp75
tp76
a(F0.9117647058823529
F0.7
(I38
F0.9117647058823529
F0.7
tp77
tp78
a(F1.0
F1.0
(I39
F1.0
F1.0
tp79
tp80
a(F0.7254901960784313
F0.46153846153846156
(I40
F0.7254901960784313
F0.46153846153846156
tp81
tp82
a(F0.8928571428571429
F0.6842105263157895
(I41
F0.8928571428571429
F0.6842105263157895
tp83
tp84
a(F0.9666666666666667
F0.875
(I42
F0.9666666666666667
F0.875
tp85
tp86
a(F0.7777777777777778
F0.6
(I43
F0.7777777777777778
F0.6
tp87
tp88
a(F0.9523809523809523
F0.9333333333333333
(I44
F0.9523809523809523
F0.9333333333333333
tp89
tp90
a(F0.9285714285714286
F0.8888888888888888
(I45
F0.9285714285714286
F0.8888888888888888
tp91
tp92
a(F0.9333333333333333
F0.7
(I46
F0.9333333333333333
F0.7
tp93
tp94
a(F0.9803921568627451
F0.9375
(I47
F0.9803921568627451
F0.9375
tp95
tp96
a(F0.8378378378378378
F0.5714285714285714
(I48
F0.8378378378378378
F0.5714285714285714
tp97
tp98
a(F0.9629629629629629
F0.6666666666666666
(I49
F0.9629629629629629
F0.6666666666666666
tp99
tp100
a(F1.0
F1.0
(I50
F1.0
F1.0
tp101
tp102
a(F1.0
F1.0
(I51
F1.0
F1.0
tp103
tp104
a(F0.7659574468085106
F0.35294117647058826
(I52
F0.7659574468085106
F0.35294117647058826
tp105
tp106
a(F0.8157894736842105
F0.2222222222222222
(I53
F0.8157894736842105
F0.2222222222222222
tp107
tp108
a(F0.9787234042553191
F0.96
(I54
F0.9787234042553191
F0.96
tp109
tp110
a(F0.88
F0.6666666666666666
(I55
F0.88
F0.6666666666666666
tp111
tp112
a(F1.0
F1.0
(I56
F1.0
F1.0
tp113
tp114
a(F0.7209302325581395
F0.6842105263157895
(I57
F0.7209302325581395
F0.6842105263157895
tp115
tp116
a(F0.6666666666666666
F0.058823529411764705
(I58
F0.6666666666666666
F0.058823529411764705
tp117
tp118
a(F0.9333333333333333
F0.8787878787878788
(I59
F0.9333333333333333
F0.8787878787878788
tp119
tp120
a(F0.9722222222222222
F0.9583333333333334
(I60
F0.9722222222222222
F0.9583333333333334
tp121
tp122
a(F1.0
F1.0
(I61
F1.0
F1.0
tp123
tp124
a(F1.0
F1.0
(I62
F1.0
F1.0
tp125
tp126
a(F0.9714285714285714
F0.9285714285714286
(I63
F0.9714285714285714
F0.9285714285714286
tp127
tp128
a(F1.0
F1.0
(I64
F1.0
F1.0
tp129
tp130
a(F0.8108108108108109
F0.2222222222222222
(I65
F0.8108108108108109
F0.2222222222222222
tp131
tp132
a(F1.0
F1.0
(I66
F1.0
F1.0
tp133
tp134
a(F1.0
F1.0
(I67
F1.0
F1.0
tp135
tp136
a(F0.9473684210526315
F0.7777777777777778
(I68
F0.9473684210526315
F0.7777777777777778
tp137
tp138
a(F0.9841269841269841
F0.8571428571428571
(I69
F0.9841269841269841
F0.8571428571428571
tp139
tp140
a(F0.9387755102040817
F0.6666666666666666
(I70
F0.9387755102040817
F0.6666666666666666
tp141
tp142
a(F0.7837837837837838
F0.0
(I71
F0.7837837837837838
F0.0
tp143
tp144
a(F0.9454545454545454
F0.7692307692307693
(I72
F0.9454545454545454
F0.7692307692307693
tp145
tp146
a(F0.813953488372093
F0.38461538461538464
(I73
F0.813953488372093
F0.38461538461538464
tp147
tp148
a(F0.47368421052631576
F0.9509803921568627
(I74
F0.47368421052631576
F0.9509803921568627
tp149
tp150
a(F1.0
F1.0
(I75
F1.0
F1.0
tp151
tp152
a(F1.0
F1.0
(I76
F1.0
F1.0
tp153
tp154
a(F0.9454545454545454
F0.8888888888888888
(I77
F0.9454545454545454
F0.8888888888888888
tp155
tp156
a(F0.9827586206896551
F0.9523809523809523
(I78
F0.9827586206896551
F0.9523809523809523
tp157
tp158
a(F0.9672131147540983
F0.7777777777777778
(I79
F0.9672131147540983
F0.7777777777777778
tp159
tp160
a(F0.9655172413793104
F0.75
(I80
F0.9655172413793104
F0.75
tp161
tp162
a(F1.0
F1.0
(I81
F1.0
F1.0
tp163
tp164
a(F0.8857142857142857
F0.2
(I82
F0.8857142857142857
F0.2
tp165
tp166
a(F1.0
F1.0
(I83
F1.0
F1.0
tp167
tp168
a(F0.90625
F0.25
(I84
F0.90625
F0.25
tp169
tp170
a(F1.0
F1.0
(I85
F1.0
F1.0
tp171
tp172
a(F1.0
F1.0
(I86
F1.0
F1.0
tp173
tp174
a(F1.0
F1.0
(I87
F1.0
F1.0
tp175
tp176
a(F1.0
F1.0
(I88
F1.0
F1.0
tp177
tp178
a(F1.0
F1.0
(I89
F1.0
F1.0
tp179
tp180
a(F1.0
F1.0
(I90
F1.0
F1.0
tp181
tp182
a(F1.0
F1.0
(I91
F1.0
F1.0
tp183
tp184
a(F1.0
F1.0
(I92
F1.0
F1.0
tp185
tp186
a(F1.0
F1.0
(I93
F1.0
F1.0
tp187
tp188
a(F1.0
F1.0
(I94
F1.0
F1.0
tp189
tp190
a(F0.8846153846153846
F0.25
(I95
F0.8846153846153846
F0.25
tp191
tp192
a(F1.0
F1.0
(I96
F1.0
F1.0
tp193
tp194
a(F0.4722222222222222
F0.0
(I97
F0.4722222222222222
F0.0
tp195
tp196
a(F1.0
F1.0
(I98
F1.0
F1.0
tp197
tp198
a(F1.0
F1.0
(I99
F1.0
F1.0
tp199
tp200
a(F1.0
F1.0
(I100
F1.0
F1.0
tp201
tp202
a(F0.6956521739130435
F0.8679245283018868
(I101
F0.6956521739130435
F0.8679245283018868
tp203
tp204
a(F1.0
F1.0
(I102
F1.0
F1.0
tp205
tp206
a(F0.9555555555555556
F0.8947368421052632
(I103
F0.9555555555555556
F0.8947368421052632
tp207
tp208
a(F0.9787234042553191
F0.96
(I104
F0.9787234042553191
F0.96
tp209
tp210
a(F0.9772727272727273
F0.9375
(I105
F0.9772727272727273
F0.9375
tp211
tp212
a(F1.0
F1.0
(I106
F1.0
F1.0
tp213
tp214
a(F1.0
F1.0
(I107
F1.0
F1.0
tp215
tp216
a(F1.0
F1.0
(I108
F1.0
F1.0
tp217
tp218
a(F1.0
F1.0
(I109
F1.0
F1.0
tp219
tp220
a(F1.0
F1.0
(I110
F1.0
F1.0
tp221
tp222
a(F1.0
F1.0
(I111
F1.0
F1.0
tp223
tp224
a(F1.0
F1.0
(I112
F1.0
F1.0
tp225
tp226
a(F1.0
F1.0
(I113
F1.0
F1.0
tp227
tp228
a(F1.0
F1.0
(I114
F1.0
F1.0
tp229
tp230
a(F0.9142857142857143
F0.9117647058823529
(I115
F0.9142857142857143
F0.9117647058823529
tp231
tp232
a(F0.7738095238095238
F0.09523809523809523
(I116
F0.7738095238095238
F0.09523809523809523
tp233
tp234
a(F0.92
F0.45454545454545453
(I117
F0.92
F0.45454545454545453
tp235
tp236
a(F0.9206349206349206
F0.5
(I118
F0.9206349206349206
F0.5
tp237
tp238
a(F0.9714285714285714
F0.75
(I119
F0.9714285714285714
F0.75
tp239
tp240
a(F0.92
F0.0
(I120
F0.92
F0.0
tp241
tp242
a(F0.9420289855072463
F0.2
(I121
F0.9420289855072463
F0.2
tp243
tp244
a(F0.9305555555555556
F0.2857142857142857
(I122
F0.9305555555555556
F0.2857142857142857
tp245
tp246
a(F0.8157894736842105
F0.125
(I123
F0.8157894736842105
F0.125
tp247
tp248
a(F0.9
F0.5555555555555556
(I124
F0.9
F0.5555555555555556
tp249
tp250
a(F0.8805970149253731
F0.0
(I125
F0.8805970149253731
F0.0
tp251
tp252
a(F0.987012987012987
F0.875
(I126
F0.987012987012987
F0.875
tp253
tp254
a(F0.8783783783783784
F0.18181818181818182
(I127
F0.8783783783783784
F0.18181818181818182
tp255
tp256
a(F0.5632183908045977
F0.0
(I128
F0.5632183908045977
F0.0
tp257
tp258
a(F0.890625
F0.3
(I129
F0.890625
F0.3
tp259
tp260
a(F0.9761904761904762
F0.6666666666666666
(I130
F0.9761904761904762
F0.6666666666666666
tp261
tp262
a(F0.92
F0.14285714285714285
(I131
F0.92
F0.14285714285714285
tp263
tp264
a(F0.726027397260274
F0.0
(I132
F0.726027397260274
F0.0
tp265
tp266
a(F0.8611111111111112
F0.0
(I133
F0.8611111111111112
F0.0
tp267
tp268
a(F0.8947368421052632
F0.6363636363636364
(I134
F0.8947368421052632
F0.6363636363636364
tp269
tp270
a(F0.9726027397260274
F0.6666666666666666
(I135
F0.9726027397260274
F0.6666666666666666
tp271
tp272
a(F0.95
F0.0
(I136
F0.95
F0.0
tp273
tp274
a(F0.7714285714285715
F0.1111111111111111
(I137
F0.7714285714285715
F0.1111111111111111
tp275
tp276
a(F0.9682539682539683
F0.6
(I138
F0.9682539682539683
F0.6
tp277
tp278
a(F0.9358974358974359
F0.2857142857142857
(I139
F0.9358974358974359
F0.2857142857142857
tp279
tp280
a(F0.9024390243902439
F0.2727272727272727
(I140
F0.9024390243902439
F0.2727272727272727
tp281
tp282
a(F0.9069767441860465
F0.2
(I141
F0.9069767441860465
F0.2
tp283
tp284
a(F0.922077922077922
F0.14285714285714285
(I142
F0.922077922077922
F0.14285714285714285
tp285
tp286
a(F0.9615384615384616
F0.4
(I143
F0.9615384615384616
F0.4
tp287
tp288
a(F0.9866666666666667
F0.75
(I144
F0.9866666666666667
F0.75
tp289
tp290
a(F0.8777777777777778
F0.08333333333333333
(I145
F0.8777777777777778
F0.08333333333333333
tp291
tp292
a(F0.9696969696969697
F0.6
(I146
F0.9696969696969697
F0.6
tp293
tp294
a(F0.8596491228070176
F0.0
(I147
F0.8596491228070176
F0.0
tp295
tp296
a(F0.9047619047619048
F0.3333333333333333
(I148
F0.9047619047619048
F0.3333333333333333
tp297
tp298
a(F0.7415730337078652
F0.041666666666666664
(I149
F0.7415730337078652
F0.041666666666666664
tp299
tp300
a(F0.8235294117647058
F0.25
(I150
F0.8235294117647058
F0.25
tp301
tp302
a(F0.9285714285714286
F0.16666666666666666
(I151
F0.9285714285714286
F0.16666666666666666
tp303
tp304
a(F0.9620253164556962
F0.0
(I152
F0.9620253164556962
F0.0
tp305
tp306
a(F0.7948717948717948
F0.1111111111111111
(I153
F0.7948717948717948
F0.1111111111111111
tp307
tp308
a(F0.9625
F0.0
(I154
F0.9625
F0.0
tp309
tp310
a(F0.9090909090909091
F0.16666666666666666
(I155
F0.9090909090909091
F0.16666666666666666
tp311
tp312
a(F0.5657894736842105
F0.0
(I156
F0.5657894736842105
F0.0
tp313
tp314
a(F0.9
F0.3333333333333333
(I157
F0.9
F0.3333333333333333
tp315
tp316
a(F0.7272727272727273
F0.0
(I158
F0.7272727272727273
F0.0
tp317
tp318
a(F0.9342105263157895
F0.16666666666666666
(I159
F0.9342105263157895
F0.16666666666666666
tp319
tp320
a(F0.7674418604651163
F0.0
(I160
F0.7674418604651163
F0.0
tp321
tp322
a(F0.8955223880597015
F0.2222222222222222
(I161
F0.8955223880597015
F0.2222222222222222
tp323
tp324
a(F0.9347826086956522
F0.0
(I162
F0.9347826086956522
F0.0
tp325
tp326
a(F0.8658536585365854
F0.0
(I163
F0.8658536585365854
F0.0
tp327
tp328
a(F0.9259259259259259
F0.0
(I164
F0.9259259259259259
F0.0
tp329
tp330
a(F0.8301886792452831
F0.0
(I165
F0.8301886792452831
F0.0
tp331
tp332
a(F0.7727272727272727
F0.0
(I166
F0.7727272727272727
F0.0
tp333
tp334
a(F0.9156626506024096
F0.125
(I167
F0.9156626506024096
F0.125
tp335
tp336
a(F0.8518518518518519
F0.1111111111111111
(I168
F0.8518518518518519
F0.1111111111111111
tp337
tp338
a(F0.975609756097561
F0.6
(I169
F0.975609756097561
F0.6
tp339
tp340
a(F0.935064935064935
F0.375
(I170
F0.935064935064935
F0.375
tp341
tp342
a(F0.813953488372093
F0.0
(I171
F0.813953488372093
F0.0
tp343
tp344
a(F0.9866666666666667
F0.0
(I172
F0.9866666666666667
F0.0
tp345
tp346
a(F0.9285714285714286
F0.0
(I173
F0.9285714285714286
F0.0
tp347
tp348
a(F0.918918918918919
F0.875
(I174
F0.918918918918919
F0.875
tp349
tp350
a(F1.0
F1.0
(I175
F1.0
F1.0
tp351
tp352
a(F1.0
F1.0
(I176
F1.0
F1.0
tp353
tp354
a(F0.972972972972973
F0.9375
(I177
F0.972972972972973
F0.9375
tp355
tp356
a(F1.0
F1.0
(I178
F1.0
F1.0
tp357
tp358
a(F1.0
F1.0
(I179
F1.0
F1.0
tp359
tp360
a(F0.967741935483871
F0.9615384615384616
(I180
F0.967741935483871
F0.9615384615384616
tp361
tp362
a(F1.0
F1.0
(I181
F1.0
F1.0
tp363
tp364
a(F1.0
F1.0
(I182
F1.0
F1.0
tp365
tp366
a(F1.0
F1.0
(I183
F1.0
F1.0
tp367
tp368
a(F0.9142857142857143
F0.896551724137931
(I184
F0.9142857142857143
F0.896551724137931
tp369
tp370
a(F1.0
F1.0
(I185
F1.0
F1.0
tp371
tp372
a(F1.0
F1.0
(I186
F1.0
F1.0
tp373
tp374
a(F0.9545454545454546
F0.9230769230769231
(I187
F0.9545454545454546
F0.9230769230769231
tp375
tp376
a(F1.0
F1.0
(I188
F1.0
F1.0
tp377
tp378
a(F1.0
F1.0
(I189
F1.0
F1.0
tp379
tp380
a(F0.8958333333333334
F0.84375
(I190
F0.8958333333333334
F0.84375
tp381
tp382
a(F0.98
F0.972972972972973
(I191
F0.98
F0.972972972972973
tp383
tp384
a(F0.875
F0.4444444444444444
(I192
F0.875
F0.4444444444444444
tp385
tp386
a(F0.8529411764705882
F0.5
(I193
F0.8529411764705882
F0.5
tp387
tp388
a(F1.0
F1.0
(I194
F1.0
F1.0
tp389
tp390
a(F0.9230769230769231
F0.6666666666666666
(I195
F0.9230769230769231
F0.6666666666666666
tp391
tp392
a(F1.0
F1.0
(I196
F1.0
F1.0
tp393
tp394
a(F0.875
F0.6666666666666666
(I197
F0.875
F0.6666666666666666
tp395
tp396
a(F1.0
F1.0
(I198
F1.0
F1.0
tp397
tp398
a(F0.8636363636363636
F0.75
(I199
F0.8636363636363636
F0.75
tp399
tp400
a(F0.8928571428571429
F0.6666666666666666
(I200
F0.8928571428571429
F0.6666666666666666
tp401
tp402
a(F0.9111111111111111
F0.8666666666666667
(I201
F0.9111111111111111
F0.8666666666666667
tp403
tp404
a(F0.9047619047619048
F0.8888888888888888
(I202
F0.9047619047619048
F0.8888888888888888
tp405
tp406
a(F0.9047619047619048
F0.0
(I203
F0.9047619047619048
F0.0
tp407
tp408
a(F0.9436619718309859
F0.3333333333333333
(I204
F0.9436619718309859
F0.3333333333333333
tp409
tp410
a(F0.9782608695652174
F0.9
(I205
F0.9782608695652174
F0.9
tp411
tp412
a(F0.9122807017543859
F0.16666666666666666
(I206
F0.9122807017543859
F0.16666666666666666
tp413
tp414
a(F0.9577464788732394
F0.6666666666666666
(I207
F0.9577464788732394
F0.6666666666666666
tp415
tp416
a(F0.9393939393939394
F0.3333333333333333
(I208
F0.9393939393939394
F0.3333333333333333
tp417
tp418
a(F0.813953488372093
F0.0
(I209
F0.813953488372093
F0.0
tp419
tp420
a(F0.9814814814814815
F0.9090909090909091
(I210
F0.9814814814814815
F0.9090909090909091
tp421
tp422
a(F0.9552238805970149
F0.6666666666666666
(I211
F0.9552238805970149
F0.6666666666666666
tp423
tp424
a(F0.9253731343283582
F0.375
(I212
F0.9253731343283582
F0.375
tp425
tp426
a(F0.925
F0.5
(I213
F0.925
F0.5
tp427
tp428
a(F0.9814814814814815
F0.9285714285714286
(I214
F0.9814814814814815
F0.9285714285714286
tp429
tp430
a(F0.8461538461538461
F0.0
(I215
F0.8461538461538461
F0.0
tp431
tp432
a(F0.9787234042553191
F0.8333333333333334
(I216
F0.9787234042553191
F0.8333333333333334
tp433
tp434
a(F0.9333333333333333
F0.375
(I217
F0.9333333333333333
F0.375
tp435
tp436
a(F1.0
F1.0
(I218
F1.0
F1.0
tp437
tp438
a(F0.9605263157894737
F0.5714285714285714
(I219
F0.9605263157894737
F0.5714285714285714
tp439
tp440
a(F0.8717948717948718
F0.4444444444444444
(I220
F0.8717948717948718
F0.4444444444444444
tp441
tp442
a(F0.9620253164556962
F0.5714285714285714
(I221
F0.9620253164556962
F0.5714285714285714
tp443
tp444
a(F0.8852459016393442
F0.3
(I222
F0.8852459016393442
F0.3
tp445
tp446
a(F0.9722222222222222
F0.5
(I223
F0.9722222222222222
F0.5
tp447
tp448
a(F0.9135802469135802
F0.125
(I224
F0.9135802469135802
F0.125
tp449
tp450
a(F0.9782608695652174
F0.875
(I225
F0.9782608695652174
F0.875
tp451
tp452
a(F0.9142857142857143
F0.5
(I226
F0.9142857142857143
F0.5
tp453
tp454
a(F0.8472222222222222
F0.0
(I227
F0.8472222222222222
F0.0
tp455
tp456
a(F0.9836065573770492
F0.5
(I228
F0.9836065573770492
F0.5
tp457
tp458
a(F0.8923076923076924
F0.3
(I229
F0.8923076923076924
F0.3
tp459
tp460
a(F0.935064935064935
F0.375
(I230
F0.935064935064935
F0.375
tp461
tp462
a(F1.0
F1.0
(I231
F1.0
F1.0
tp463
tp464
a.