(lp0
(F0.9230769230769231
F0.8333333333333334
(I0
F0.9230769230769231
F0.8333333333333334
tp1
tp2
a(F0.9827586206896551
F0.9285714285714286
(I1
F0.9827586206896551
F0.9285714285714286
tp3
tp4
a(F1.0
F1.0
(I2
F1.0
F1.0
tp5
tp6
a(F0.9555555555555556
F0.6
(I3
F0.9555555555555556
F0.6
tp7
tp8
a(F1.0
F1.0
(I4
F1.0
F1.0
tp9
tp10
a(F0.9841269841269841
F0.9230769230769231
(I5
F0.9841269841269841
F0.9230769230769231
tp11
tp12
a(F1.0
F1.0
(I6
F1.0
F1.0
tp13
tp14
a(F1.0
F1.0
(I7
F1.0
F1.0
tp15
tp16
a(F1.0
F1.0
(I8
F1.0
F1.0
tp17
tp18
a(F0.9523809523809523
F0.9393939393939394
(I9
F0.9523809523809523
F0.9393939393939394
tp19
tp20
a(F1.0
F1.0
(I10
F1.0
F1.0
tp21
tp22
a(F0.9574468085106383
F0.9411764705882353
(I11
F0.9574468085106383
F0.9411764705882353
tp23
tp24
a(F0.9782608695652174
F0.9583333333333334
(I12
F0.9782608695652174
F0.9583333333333334
tp25
tp26
a(F1.0
F1.0
(I13
F1.0
F1.0
tp27
tp28
a(F0.9655172413793104
F0.8
(I14
F0.9655172413793104
F0.8
tp29
tp30
a(F1.0
F1.0
(I15
F1.0
F1.0
tp31
tp32
a(F0.9615384615384616
F0.6
(I16
F0.9615384615384616
F0.6
tp33
tp34
a(F1.0
F1.0
(I17
F1.0
F1.0
tp35
tp36
a(F1.0
F1.0
(I18
F1.0
F1.0
tp37
tp38
a(F1.0
F1.0
(I19
F1.0
F1.0
tp39
tp40
a(F0.972972972972973
F0.967741935483871
(I20
F0.972972972972973
F0.967741935483871
tp41
tp42
a(F1.0
F1.0
(I21
F1.0
F1.0
tp43
tp44
a(F1.0
F1.0
(I22
F1.0
F1.0
tp45
tp46
a(F0.9166666666666666
F0.5714285714285714
(I23
F0.9166666666666666
F0.5714285714285714
tp47
tp48
a(F0.9534883720930233
F0.8
(I24
F0.9534883720930233
F0.8
tp49
tp50
a(F0.9615384615384616
F0.8
(I25
F0.9615384615384616
F0.8
tp51
tp52
a(F0.9827586206896551
F0.9565217391304348
(I26
F0.9827586206896551
F0.9565217391304348
tp53
tp54
a(F1.0
F1.0
(I27
F1.0
F1.0
tp55
tp56
a(F1.0
F1.0
(I28
F1.0
F1.0
tp57
tp58
a(F1.0
F1.0
(I29
F1.0
F1.0
tp59
tp60
a(F0.76
F0.9693877551020408
(I30
F0.76
F0.9693877551020408
tp61
tp62
a(F0.8571428571428571
F0.8823529411764706
(I31
F0.8571428571428571
F0.8823529411764706
tp63
tp64
a(F1.0
F1.0
(I32
F1.0
F1.0
tp65
tp66
a(F0.9423076923076923
F0.8846153846153846
(I33
F0.9423076923076923
F0.8846153846153846
tp67
tp68
a(F1.0
F1.0
(I34
F1.0
F1.0
tp69
tp70
a(F0.9032258064516129
F0.5
(I35
F0.9032258064516129
F0.5
tp71
tp72
a(F0.9230769230769231
F0.9865771812080537
(I36
F0.9230769230769231
F0.9865771812080537
tp73
tp74
a(F0.9565217391304348
F0.9838709677419355
(I37
F0.9565217391304348
F0.9838709677419355
tp75
tp76
a(F0.9629629629629629
F0.8
(I38
F0.9629629629629629
F0.8
tp77
tp78
a(F0.9473684210526315
F0.990990990990991
(I39
F0.9473684210526315
F0.990990990990991
tp79
tp80
a(F1.0
F1.0
(I40
F1.0
F1.0
tp81
tp82
a(F0.8214285714285714
F0.7058823529411765
(I41
F0.8214285714285714
F0.7058823529411765
tp83
tp84
a(F1.0
F1.0
(I42
F1.0
F1.0
tp85
tp86
a(F0.9310344827586207
F0.9895287958115183
(I43
F0.9310344827586207
F0.9895287958115183
tp87
tp88
a(F0.9850746268656716
F0.9375
(I44
F0.9850746268656716
F0.9375
tp89
tp90
a(F0.7307692307692307
F0.93
(I45
F0.7307692307692307
F0.93
tp91
tp92
a(F1.0
F1.0
(I46
F1.0
F1.0
tp93
tp94
a(F1.0
F1.0
(I47
F1.0
F1.0
tp95
tp96
a(F1.0
F1.0
(I48
F1.0
F1.0
tp97
tp98
a(F0.9545454545454546
F0.9906542056074766
(I49
F0.9545454545454546
F0.9906542056074766
tp99
tp100
a(F1.0
F1.0
(I50
F1.0
F1.0
tp101
tp102
a(F0.9354838709677419
F0.8461538461538461
(I51
F0.9354838709677419
F0.8461538461538461
tp103
tp104
a(F0.9512195121951219
F0.9866666666666667
(I52
F0.9512195121951219
F0.9866666666666667
tp105
tp106
a(F1.0
F1.0
(I53
F1.0
F1.0
tp107
tp108
a(F1.0
F1.0
(I54
F1.0
F1.0
tp109
tp110
a(F0.5263157894736842
F0.8977272727272727
(I55
F0.5263157894736842
F0.8977272727272727
tp111
tp112
a(F0.8
F0.9901960784313726
(I56
F0.8
F0.9901960784313726
tp113
tp114
a(F0.9047619047619048
F0.8518518518518519
(I57
F0.9047619047619048
F0.8518518518518519
tp115
tp116
a(F0.9090909090909091
F0.9886363636363636
(I58
F0.9090909090909091
F0.9886363636363636
tp117
tp118
a(F1.0
F1.0
(I59
F1.0
F1.0
tp119
tp120
a(F1.0
F1.0
(I60
F1.0
F1.0
tp121
tp122
a(F0.975
F0.875
(I61
F0.975
F0.875
tp123
tp124
a(F0.9583333333333334
F0.9090909090909091
(I62
F0.9583333333333334
F0.9090909090909091
tp125
tp126
a(F1.0
F1.0
(I63
F1.0
F1.0
tp127
tp128
a(F0.9836065573770492
F0.8333333333333334
(I64
F0.9836065573770492
F0.8333333333333334
tp129
tp130
a(F0.9642857142857143
F0.8333333333333334
(I65
F0.9642857142857143
F0.8333333333333334
tp131
tp132
a(F1.0
F1.0
(I66
F1.0
F1.0
tp133
tp134
a(F1.0
F1.0
(I67
F1.0
F1.0
tp135
tp136
a(F0.9696969696969697
F0.8888888888888888
(I68
F0.9696969696969697
F0.8888888888888888
tp137
tp138
a(F1.0
F1.0
(I69
F1.0
F1.0
tp139
tp140
a(F0.9661016949152542
F0.8
(I70
F0.9661016949152542
F0.8
tp141
tp142
a(F1.0
F1.0
(I71
F1.0
F1.0
tp143
tp144
a(F1.0
F1.0
(I72
F1.0
F1.0
tp145
tp146
a(F0.9736842105263158
F0.9743589743589743
(I73
F0.9736842105263158
F0.9743589743589743
tp147
tp148
a(F1.0
F1.0
(I74
F1.0
F1.0
tp149
tp150
a(F0.9655172413793104
F0.75
(I75
F0.9655172413793104
F0.75
tp151
tp152
a(F1.0
F1.0
(I76
F1.0
F1.0
tp153
tp154
a(F1.0
F1.0
(I77
F1.0
F1.0
tp155
tp156
a(F1.0
F1.0
(I78
F1.0
F1.0
tp157
tp158
a(F1.0
F1.0
(I79
F1.0
F1.0
tp159
tp160
a(F1.0
F1.0
(I80
F1.0
F1.0
tp161
tp162
a(F1.0
F1.0
(I81
F1.0
F1.0
tp163
tp164
a(F1.0
F1.0
(I82
F1.0
F1.0
tp165
tp166
a(F1.0
F1.0
(I83
F1.0
F1.0
tp167
tp168
a(F1.0
F1.0
(I84
F1.0
F1.0
tp169
tp170
a(F1.0
F1.0
(I85
F1.0
F1.0
tp171
tp172
a(F0.9642857142857143
F0.9090909090909091
(I86
F0.9642857142857143
F0.9090909090909091
tp173
tp174
a(F1.0
F1.0
(I87
F1.0
F1.0
tp175
tp176
a(F1.0
F1.0
(I88
F1.0
F1.0
tp177
tp178
a(F0.9487179487179487
F0.8333333333333334
(I89
F0.9487179487179487
F0.8333333333333334
tp179
tp180
a(F0.8260869565217391
F0.2
(I90
F0.8260869565217391
F0.2
tp181
tp182
a(F0.7105263157894737
F0.15384615384615385
(I91
F0.7105263157894737
F0.15384615384615385
tp183
tp184
a(F0.8695652173913043
F0.6
(I92
F0.8695652173913043
F0.6
tp185
tp186
a(F0.8043478260869565
F0.55
(I93
F0.8043478260869565
F0.55
tp187
tp188
a(F0.45652173913043476
F0.2647058823529412
(I94
F0.45652173913043476
F0.2647058823529412
tp189
tp190
a(F0.627906976744186
F0.1111111111111111
(I95
F0.627906976744186
F0.1111111111111111
tp191
tp192
a(F0.9411764705882353
F0.7
(I96
F0.9411764705882353
F0.7
tp193
tp194
a(F0.9166666666666666
F0.8260869565217391
(I97
F0.9166666666666666
F0.8260869565217391
tp195
tp196
a(F0.7555555555555555
F0.6071428571428571
(I98
F0.7555555555555555
F0.6071428571428571
tp197
tp198
a(F0.9803921568627451
F0.8333333333333334
(I99
F0.9803921568627451
F0.8333333333333334
tp199
tp200
a(F0.9230769230769231
F0.7857142857142857
(I100
F0.9230769230769231
F0.7857142857142857
tp201
tp202
a(F0.9622641509433962
F0.6
(I101
F0.9622641509433962
F0.6
tp203
tp204
a(F0.98
F0.8571428571428571
(I102
F0.98
F0.8571428571428571
tp205
tp206
a(F0.8367346938775511
F0.42857142857142855
(I103
F0.8367346938775511
F0.42857142857142855
tp207
tp208
a(F0.14
F0.0
(I104
F0.14
F0.0
tp209
tp210
a(F0.8181818181818182
F0.7391304347826086
(I105
F0.8181818181818182
F0.7391304347826086
tp211
tp212
a(F0.9230769230769231
F0.2
(I106
F0.9230769230769231
F0.2
tp213
tp214
a(F0.851063829787234
F0.3
(I107
F0.851063829787234
F0.3
tp215
tp216
a(F0.9534883720930233
F0.6666666666666666
(I108
F0.9534883720930233
F0.6666666666666666
tp217
tp218
a(F0.7575757575757576
F0.3333333333333333
(I109
F0.7575757575757576
F0.3333333333333333
tp219
tp220
a(F0.8285714285714286
F0.4
(I110
F0.8285714285714286
F0.4
tp221
tp222
a(F0.7714285714285715
F0.0
(I111
F0.7714285714285715
F0.0
tp223
tp224
a(F0.8846153846153846
F0.5714285714285714
(I112
F0.8846153846153846
F0.5714285714285714
tp225
tp226
a(F0.6666666666666666
F0.0
(I113
F0.6666666666666666
F0.0
tp227
tp228
a(F0.7115384615384616
F0.21052631578947367
(I114
F0.7115384615384616
F0.21052631578947367
tp229
tp230
a(F0.8611111111111112
F0.6666666666666666
(I115
F0.8611111111111112
F0.6666666666666666
tp231
tp232
a(F0.7142857142857143
F0.25
(I116
F0.7142857142857143
F0.25
tp233
tp234
a(F0.9767441860465116
F0.9629629629629629
(I117
F0.9767441860465116
F0.9629629629629629
tp235
tp236
a(F0.9777777777777777
F0.9230769230769231
(I118
F0.9777777777777777
F0.9230769230769231
tp237
tp238
a(F0.972972972972973
F0.9333333333333333
(I119
F0.972972972972973
F0.9333333333333333
tp239
tp240
a(F0.9824561403508771
F0.9
(I120
F0.9824561403508771
F0.9
tp241
tp242
a(F0.9714285714285714
F0.8333333333333334
(I121
F0.9714285714285714
F0.8333333333333334
tp243
tp244
a(F1.0
F1.0
(I122
F1.0
F1.0
tp245
tp246
a(F1.0
F1.0
(I123
F1.0
F1.0
tp247
tp248
a(F0.9772727272727273
F0.9285714285714286
(I124
F0.9772727272727273
F0.9285714285714286
tp249
tp250
a(F1.0
F1.0
(I125
F1.0
F1.0
tp251
tp252
a(F0.9444444444444444
F0.6
(I126
F0.9444444444444444
F0.6
tp253
tp254
a(F1.0
F1.0
(I127
F1.0
F1.0
tp255
tp256
a(F1.0
F1.0
(I128
F1.0
F1.0
tp257
tp258
a(F1.0
F1.0
(I129
F1.0
F1.0
tp259
tp260
a(F1.0
F1.0
(I130
F1.0
F1.0
tp261
tp262
a(F1.0
F1.0
(I131
F1.0
F1.0
tp263
tp264
a(F0.95
F0.6
(I132
F0.95
F0.6
tp265
tp266
a(F1.0
F1.0
(I133
F1.0
F1.0
tp267
tp268
a(F0.9565217391304348
F0.9428571428571428
(I134
F0.9565217391304348
F0.9428571428571428
tp269
tp270
a(F1.0
F1.0
(I135
F1.0
F1.0
tp271
tp272
a(F1.0
F1.0
(I136
F1.0
F1.0
tp273
tp274
a(F0.9803921568627451
F0.9166666666666666
(I137
F0.9803921568627451
F0.9166666666666666
tp275
tp276
a(F1.0
F1.0
(I138
F1.0
F1.0
tp277
tp278
a(F1.0
F1.0
(I139
F1.0
F1.0
tp279
tp280
a(F0.9772727272727273
F0.8
(I140
F0.9772727272727273
F0.8
tp281
tp282
a(F1.0
F1.0
(I141
F1.0
F1.0
tp283
tp284
a(F0.9821428571428571
F0.9230769230769231
(I142
F0.9821428571428571
F0.9230769230769231
tp285
tp286
a(F1.0
F1.0
(I143
F1.0
F1.0
tp287
tp288
a(F0.9722222222222222
F0.8571428571428571
(I144
F0.9722222222222222
F0.8571428571428571
tp289
tp290
a(F1.0
F1.0
(I145
F1.0
F1.0
tp291
tp292
a(F1.0
F1.0
(I146
F1.0
F1.0
tp293
tp294
a(F0.9850746268656716
F0.75
(I147
F0.9850746268656716
F0.75
tp295
tp296
a(F1.0
F1.0
(I148
F1.0
F1.0
tp297
tp298
a(F0.8947368421052632
F0.7857142857142857
(I149
F0.8947368421052632
F0.7857142857142857
tp299
tp300
a(F1.0
F1.0
(I150
F1.0
F1.0
tp301
tp302
a(F0.8955223880597015
F0.3
(I151
F0.8955223880597015
F0.3
tp303
tp304
a(F0.9733333333333334
F0.6666666666666666
(I152
F0.9733333333333334
F0.6666666666666666
tp305
tp306
a(F0.9512195121951219
F0.9310344827586207
(I153
F0.9512195121951219
F0.9310344827586207
tp307
tp308
a(F1.0
F1.0
(I154
F1.0
F1.0
tp309
tp310
a(F0.9736842105263158
F0.6
(I155
F0.9736842105263158
F0.6
tp311
tp312
a(F0.9795918367346939
F0.875
(I156
F0.9795918367346939
F0.875
tp313
tp314
a(F1.0
F1.0
(I157
F1.0
F1.0
tp315
tp316
a(F0.9821428571428571
F0.8333333333333334
(I158
F0.9821428571428571
F0.8333333333333334
tp317
tp318
a(F0.9523809523809523
F0.9375
(I159
F0.9523809523809523
F0.9375
tp319
tp320
a(F1.0
F1.0
(I160
F1.0
F1.0
tp321
tp322
a(F0.9714285714285714
F0.8888888888888888
(I161
F0.9714285714285714
F0.8888888888888888
tp323
tp324
a(F0.9814814814814815
F0.9285714285714286
(I162
F0.9814814814814815
F0.9285714285714286
tp325
tp326
a(F0.9824561403508771
F0.9722222222222222
(I163
F0.9824561403508771
F0.9722222222222222
tp327
tp328
a(F0.95
F0.9142857142857143
(I164
F0.95
F0.9142857142857143
tp329
tp330
a(F1.0
F1.0
(I165
F1.0
F1.0
tp331
tp332
a(F0.9310344827586207
F0.42857142857142855
(I166
F0.9310344827586207
F0.42857142857142855
tp333
tp334
a(F1.0
F1.0
(I167
F1.0
F1.0
tp335
tp336
a(F0.8709677419354839
F0.5
(I168
F0.8709677419354839
F0.5
tp337
tp338
a(F0.975609756097561
F0.8
(I169
F0.975609756097561
F0.8
tp339
tp340
a(F0.9767441860465116
F0.8571428571428571
(I170
F0.9767441860465116
F0.8571428571428571
tp341
tp342
a(F0.9722222222222222
F0.875
(I171
F0.9722222222222222
F0.875
tp343
tp344
a(F1.0
F1.0
(I172
F1.0
F1.0
tp345
tp346
a(F1.0
F1.0
(I173
F1.0
F1.0
tp347
tp348
a(F0.9302325581395349
F0.4
(I174
F0.9302325581395349
F0.4
tp349
tp350
a(F0.8571428571428571
F0.1
(I175
F0.8571428571428571
F0.1
tp351
tp352
a(F0.9777777777777777
F0.8
(I176
F0.9777777777777777
F0.8
tp353
tp354
a(F0.875
F0.0
(I177
F0.875
F0.0
tp355
tp356
a(F0.9743589743589743
F0.9
(I178
F0.9743589743589743
F0.9
tp357
tp358
a(F0.9873417721518988
F0.5
(I179
F0.9873417721518988
F0.5
tp359
tp360
a(F0.8631578947368421
F0.0
(I180
F0.8631578947368421
F0.0
tp361
tp362
a(F0.9615384615384616
F0.5
(I181
F0.9615384615384616
F0.5
tp363
tp364
a(F1.0
F1.0
(I182
F1.0
F1.0
tp365
tp366
a(F0.9736842105263158
F0.75
(I183
F0.9736842105263158
F0.75
tp367
tp368
a(F0.9583333333333334
F0.5
(I184
F0.9583333333333334
F0.5
tp369
tp370
a(F0.8181818181818182
F0.125
(I185
F0.8181818181818182
F0.125
tp371
tp372
a(F0.7666666666666667
F0.08695652173913043
(I186
F0.7666666666666667
F0.08695652173913043
tp373
tp374
a(F1.0
F1.0
(I187
F1.0
F1.0
tp375
tp376
a(F0.9868421052631579
F0.6666666666666666
(I188
F0.9868421052631579
F0.6666666666666666
tp377
tp378
a(F0.9516129032258065
F0.4
(I189
F0.9516129032258065
F0.4
tp379
tp380
a(F0.92
F0.3333333333333333
(I190
F0.92
F0.3333333333333333
tp381
tp382
a(F0.9193548387096774
F0.2857142857142857
(I191
F0.9193548387096774
F0.2857142857142857
tp383
tp384
a(F0.8476190476190476
F0.15789473684210525
(I192
F0.8476190476190476
F0.15789473684210525
tp385
tp386
a(F0.9166666666666666
F0.4
(I193
F0.9166666666666666
F0.4
tp387
tp388
a(F0.9489795918367347
F0.2857142857142857
(I194
F0.9489795918367347
F0.2857142857142857
tp389
tp390
a(F0.9761904761904762
F0.7142857142857143
(I195
F0.9761904761904762
F0.7142857142857143
tp391
tp392
a(F0.9878048780487805
F0.8333333333333334
(I196
F0.9878048780487805
F0.8333333333333334
tp393
tp394
a(F0.8876404494382022
F0.16666666666666666
(I197
F0.8876404494382022
F0.16666666666666666
tp395
tp396
a(F0.9431818181818182
F0.2857142857142857
(I198
F0.9431818181818182
F0.2857142857142857
tp397
tp398
a(F0.9615384615384616
F0.5
(I199
F0.9615384615384616
F0.5
tp399
tp400
a(F0.8947368421052632
F0.0
(I200
F0.8947368421052632
F0.0
tp401
tp402
a(F1.0
F1.0
(I201
F1.0
F1.0
tp403
tp404
a(F0.6483516483516484
F0.0
(I202
F0.6483516483516484
F0.0
tp405
tp406
a(F1.0
F1.0
(I203
F1.0
F1.0
tp407
tp408
a(F1.0
F1.0
(I204
F1.0
F1.0
tp409
tp410
a(F1.0
F1.0
(I205
F1.0
F1.0
tp411
tp412
a(F1.0
F1.0
(I206
F1.0
F1.0
tp413
tp414
a(F0.96875
F0.9696969696969697
(I207
F0.96875
F0.9696969696969697
tp415
tp416
a(F1.0
F1.0
(I208
F1.0
F1.0
tp417
tp418
a(F0.9705882352941176
F0.9629629629629629
(I209
F0.9705882352941176
F0.9629629629629629
tp419
tp420
a(F1.0
F1.0
(I210
F1.0
F1.0
tp421
tp422
a(F0.9333333333333333
F0.9642857142857143
(I211
F0.9333333333333333
F0.9642857142857143
tp423
tp424
a(F0.9655172413793104
F0.9090909090909091
(I212
F0.9655172413793104
F0.9090909090909091
tp425
tp426
a(F0.9333333333333333
F0.875
(I213
F0.9333333333333333
F0.875
tp427
tp428
a(F0.59375
F0.10344827586206896
(I214
F0.59375
F0.10344827586206896
tp429
tp430
a(F0.9259259259259259
F0.9090909090909091
(I215
F0.9259259259259259
F0.9090909090909091
tp431
tp432
a(F1.0
F1.0
(I216
F1.0
F1.0
tp433
tp434
a(F1.0
F1.0
(I217
F1.0
F1.0
tp435
tp436
a(F1.0
F1.0
(I218
F1.0
F1.0
tp437
tp438
a(F0.92
F0.6666666666666666
(I219
F0.92
F0.6666666666666666
tp439
tp440
a(F0.9473684210526315
F0.9444444444444444
(I220
F0.9473684210526315
F0.9444444444444444
tp441
tp442
a(F0.98
F0.95
(I221
F0.98
F0.95
tp443
tp444
a(F0.92
F0.9259259259259259
(I222
F0.92
F0.9259259259259259
tp445
tp446
a(F1.0
F1.0
(I223
F1.0
F1.0
tp447
tp448
a(F1.0
F1.0
(I224
F1.0
F1.0
tp449
tp450
a(F0.9166666666666666
F0.9047619047619048
(I225
F0.9166666666666666
F0.9047619047619048
tp451
tp452
a(F1.0
F1.0
(I226
F1.0
F1.0
tp453
tp454
a(F1.0
F1.0
(I227
F1.0
F1.0
tp455
tp456
a(F1.0
F1.0
(I228
F1.0
F1.0
tp457
tp458
a(F0.9545454545454546
F0.9473684210526315
(I229
F0.9545454545454546
F0.9473684210526315
tp459
tp460
a(F1.0
F1.0
(I230
F1.0
F1.0
tp461
tp462
a(F1.0
F1.0
(I231
F1.0
F1.0
tp463
tp464
a.