(lp0
(F0.410958904109589
F0.0
(I0
F0.410958904109589
F0.0
tp1
tp2
a(F0.48717948717948717
F0.0
(I1
F0.48717948717948717
F0.0
tp3
tp4
a(F1.0
F1.0
(I2
F1.0
F1.0
tp5
tp6
a(F0.6222222222222222
F0.0
(I3
F0.6222222222222222
F0.0
tp7
tp8
a(F0.7931034482758621
F0.3684210526315789
(I4
F0.7931034482758621
F0.3684210526315789
tp9
tp10
a(F0.6481481481481481
F0.09523809523809523
(I5
F0.6481481481481481
F0.09523809523809523
tp11
tp12
a(F0.6071428571428571
F0.0
(I6
F0.6071428571428571
F0.0
tp13
tp14
a(F0.6417910447761194
F0.0
(I7
F0.6417910447761194
F0.0
tp15
tp16
a(F0.7575757575757576
F0.2
(I8
F0.7575757575757576
F0.2
tp17
tp18
a(F0.38636363636363635
F0.325
(I9
F0.38636363636363635
F0.325
tp19
tp20
a(F0.9090909090909091
F0.6666666666666666
(I10
F0.9090909090909091
F0.6666666666666666
tp21
tp22
a(F0.9743589743589743
F0.8
(I11
F0.9743589743589743
F0.8
tp23
tp24
a(F0.6944444444444444
F0.08333333333333333
(I12
F0.6944444444444444
F0.08333333333333333
tp25
tp26
a(F0.9069767441860465
F0.42857142857142855
(I13
F0.9069767441860465
F0.42857142857142855
tp27
tp28
a(F0.59375
F0.1875
(I14
F0.59375
F0.1875
tp29
tp30
a(F0.5348837209302325
F0.3103448275862069
(I15
F0.5348837209302325
F0.3103448275862069
tp31
tp32
a(F0.38095238095238093
F0.037037037037037035
(I16
F0.38095238095238093
F0.037037037037037035
tp33
tp34
a(F0.3695652173913043
F0.0
(I17
F0.3695652173913043
F0.0
tp35
tp36
a(F0.8923076923076924
F0.125
(I18
F0.8923076923076924
F0.125
tp37
tp38
a(F0.9666666666666667
F0.8571428571428571
(I19
F0.9666666666666667
F0.8571428571428571
tp39
tp40
a(F1.0
F1.0
(I20
F1.0
F1.0
tp41
tp42
a(F0.3333333333333333
F0.1111111111111111
(I21
F0.3333333333333333
F0.1111111111111111
tp43
tp44
a(F1.0
F1.0
(I22
F1.0
F1.0
tp45
tp46
a(F0.896551724137931
F0.5
(I23
F0.896551724137931
F0.5
tp47
tp48
a(F0.8846153846153846
F0.5
(I24
F0.8846153846153846
F0.5
tp49
tp50
a(F0.803030303030303
F0.13333333333333333
(I25
F0.803030303030303
F0.13333333333333333
tp51
tp52
a(F0.8085106382978723
F0.47058823529411764
(I26
F0.8085106382978723
F0.47058823529411764
tp53
tp54
a(F0.0
F0.0
(I27
F0.0
F0.0
tp55
tp56
a(F0.8
F0.4
(I28
F0.8
F0.4
tp57
tp58
a(F0.9375
F0.5714285714285714
(I29
F0.9375
F0.5714285714285714
tp59
tp60
a(F0.9591836734693877
F0.5
(I30
F0.9591836734693877
F0.5
tp61
tp62
a(F1.0
F1.0
(I31
F1.0
F1.0
tp63
tp64
a(F1.0
F1.0
(I32
F1.0
F1.0
tp65
tp66
a(F0.8703703703703703
F0.3
(I33
F0.8703703703703703
F0.3
tp67
tp68
a(F0.3333333333333333
F0.0
(I34
F0.3333333333333333
F0.0
tp69
tp70
a(F0.9696969696969697
F0.6666666666666666
(I35
F0.9696969696969697
F0.6666666666666666
tp71
tp72
a(F1.0
F1.0
(I36
F1.0
F1.0
tp73
tp74
a(F0.9833333333333333
F0.75
(I37
F0.9833333333333333
F0.75
tp75
tp76
a(F1.0
F1.0
(I38
F1.0
F1.0
tp77
tp78
a(F0.9344262295081968
F0.6666666666666666
(I39
F0.9344262295081968
F0.6666666666666666
tp79
tp80
a(F0.7419354838709677
F0.15789473684210525
(I40
F0.7419354838709677
F0.15789473684210525
tp81
tp82
a(F0.9591836734693877
F0.7777777777777778
(I41
F0.9591836734693877
F0.7777777777777778
tp83
tp84
a(F0.576271186440678
F0.038461538461538464
(I42
F0.576271186440678
F0.038461538461538464
tp85
tp86
a(F0.9787234042553191
F0.8571428571428571
(I43
F0.9787234042553191
F0.8571428571428571
tp87
tp88
a(F1.0
F1.0
(I44
F1.0
F1.0
tp89
tp90
a(F1.0
F1.0
(I45
F1.0
F1.0
tp91
tp92
a(F0.9565217391304348
F0.7142857142857143
(I46
F0.9565217391304348
F0.7142857142857143
tp93
tp94
a(F0.7636363636363637
F0.07142857142857142
(I47
F0.7636363636363637
F0.07142857142857142
tp95
tp96
a(F0.9574468085106383
F0.3333333333333333
(I48
F0.9574468085106383
F0.3333333333333333
tp97
tp98
a(F0.98
F0.8333333333333334
(I49
F0.98
F0.8333333333333334
tp99
tp100
a(F0.9807692307692307
F0.9166666666666666
(I50
F0.9807692307692307
F0.9166666666666666
tp101
tp102
a(F0.8032786885245902
F0.4
(I51
F0.8032786885245902
F0.4
tp103
tp104
a(F0.9428571428571428
F0.5
(I52
F0.9428571428571428
F0.5
tp105
tp106
a(F0.9117647058823529
F0.0
(I53
F0.9117647058823529
F0.0
tp107
tp108
a(F0.9772727272727273
F0.9411764705882353
(I54
F0.9772727272727273
F0.9411764705882353
tp109
tp110
a(F0.8653846153846154
F0.36363636363636365
(I55
F0.8653846153846154
F0.36363636363636365
tp111
tp112
a(F1.0
F1.0
(I56
F1.0
F1.0
tp113
tp114
a(F0.875
F0.0
(I57
F0.875
F0.0
tp115
tp116
a(F0.8507462686567164
F0.0
(I58
F0.8507462686567164
F0.0
tp117
tp118
a(F0.9056603773584906
F0.375
(I59
F0.9056603773584906
F0.375
tp119
tp120
a(F0.803921568627451
F0.0
(I60
F0.803921568627451
F0.0
tp121
tp122
a(F0.75
F0.0
(I61
F0.75
F0.0
tp123
tp124
a(F0.82
F0.0
(I62
F0.82
F0.0
tp125
tp126
a(F0.8679245283018868
F0.0
(I63
F0.8679245283018868
F0.0
tp127
tp128
a(F0.9019607843137255
F0.0
(I64
F0.9019607843137255
F0.0
tp129
tp130
a(F0.7638888888888888
F0.0
(I65
F0.7638888888888888
F0.0
tp131
tp132
a(F0.8541666666666666
F0.0
(I66
F0.8541666666666666
F0.0
tp133
tp134
a(F0.7333333333333333
F0.0
(I67
F0.7333333333333333
F0.0
tp135
tp136
a(F0.9074074074074074
F0.0
(I68
F0.9074074074074074
F0.0
tp137
tp138
a(F0.9803921568627451
F0.6666666666666666
(I69
F0.9803921568627451
F0.6666666666666666
tp139
tp140
a(F0.8431372549019608
F0.0
(I70
F0.8431372549019608
F0.0
tp141
tp142
a(F0.7096774193548387
F0.0
(I71
F0.7096774193548387
F0.0
tp143
tp144
a(F0.6
F0.047619047619047616
(I72
F0.6
F0.047619047619047616
tp145
tp146
a(F0.7777777777777778
F0.0
(I73
F0.7777777777777778
F0.0
tp147
tp148
a(F0.86
F0.0
(I74
F0.86
F0.0
tp149
tp150
a(F1.0
F1.0
(I75
F1.0
F1.0
tp151
tp152
a(F0.9433962264150944
F0.0
(I76
F0.9433962264150944
F0.0
tp153
tp154
a(F0.8214285714285714
F0.0
(I77
F0.8214285714285714
F0.0
tp155
tp156
a(F0.7166666666666667
F0.0
(I78
F0.7166666666666667
F0.0
tp157
tp158
a(F0.9464285714285714
F0.0
(I79
F0.9464285714285714
F0.0
tp159
tp160
a(F0.864406779661017
F0.0
(I80
F0.864406779661017
F0.0
tp161
tp162
a(F0.7857142857142857
F0.1
(I81
F0.7857142857142857
F0.1
tp163
tp164
a(F0.8928571428571429
F0.0
(I82
F0.8928571428571429
F0.0
tp165
tp166
a(F0.8620689655172413
F0.0
(I83
F0.8620689655172413
F0.0
tp167
tp168
a(F0.7735849056603774
F0.0
(I84
F0.7735849056603774
F0.0
tp169
tp170
a(F0.9318181818181818
F0.25
(I85
F0.9318181818181818
F0.25
tp171
tp172
a(F0.8596491228070176
F0.0
(I86
F0.8596491228070176
F0.0
tp173
tp174
a(F0.8688524590163934
F0.1111111111111111
(I87
F0.8688524590163934
F0.1111111111111111
tp175
tp176
a(F0.8472222222222222
F0.0
(I88
F0.8472222222222222
F0.0
tp177
tp178
a(F0.7142857142857143
F0.14285714285714285
(I89
F0.7142857142857143
F0.14285714285714285
tp179
tp180
a(F0.7903225806451613
F0.0
(I90
F0.7903225806451613
F0.0
tp181
tp182
a(F0.8333333333333334
F0.0
(I91
F0.8333333333333334
F0.0
tp183
tp184
a(F0.872093023255814
F0.08333333333333333
(I92
F0.872093023255814
F0.08333333333333333
tp185
tp186
a(F0.9642857142857143
F0.5
(I93
F0.9642857142857143
F0.5
tp187
tp188
a(F0.717948717948718
F0.0
(I94
F0.717948717948718
F0.0
tp189
tp190
a(F0.7536231884057971
F0.05555555555555555
(I95
F0.7536231884057971
F0.05555555555555555
tp191
tp192
a(F0.8714285714285714
F0.0
(I96
F0.8714285714285714
F0.0
tp193
tp194
a(F0.8939393939393939
F0.125
(I97
F0.8939393939393939
F0.125
tp195
tp196
a(F0.6951219512195121
F0.0
(I98
F0.6951219512195121
F0.0
tp197
tp198
a(F0.8571428571428571
F0.375
(I99
F0.8571428571428571
F0.375
tp199
tp200
a(F0.8
F0.1111111111111111
(I100
F0.8
F0.1111111111111111
tp201
tp202
a(F0.6619718309859155
F0.0
(I101
F0.6619718309859155
F0.0
tp203
tp204
a(F0.8552631578947368
F0.0
(I102
F0.8552631578947368
F0.0
tp205
tp206
a(F0.8125
F0.0
(I103
F0.8125
F0.0
tp207
tp208
a(F0.3088235294117647
F0.0
(I104
F0.3088235294117647
F0.0
tp209
tp210
a(F0.8113207547169812
F0.0
(I105
F0.8113207547169812
F0.0
tp211
tp212
a(F0.8214285714285714
F0.0
(I106
F0.8214285714285714
F0.0
tp213
tp214
a(F0.5128205128205128
F0.0
(I107
F0.5128205128205128
F0.0
tp215
tp216
a(F0.7727272727272727
F0.0
(I108
F0.7727272727272727
F0.0
tp217
tp218
a(F0.782051282051282
F0.15
(I109
F0.782051282051282
F0.15
tp219
tp220
a(F0.7446808510638298
F0.0
(I110
F0.7446808510638298
F0.0
tp221
tp222
a(F0.6666666666666666
F0.0
(I111
F0.6666666666666666
F0.0
tp223
tp224
a(F0.8441558441558441
F0.0
(I112
F0.8441558441558441
F0.0
tp225
tp226
a(F0.6301369863013698
F0.0
(I113
F0.6301369863013698
F0.0
tp227
tp228
a(F0.8961038961038961
F0.0
(I114
F0.8961038961038961
F0.0
tp229
tp230
a(F0.9310344827586207
F0.3333333333333333
(I115
F0.9310344827586207
F0.3333333333333333
tp231
tp232
a(F0.9305555555555556
F0.5
(I116
F0.9305555555555556
F0.5
tp233
tp234
a(F0.9743589743589743
F0.75
(I117
F0.9743589743589743
F0.75
tp235
tp236
a(F0.5645161290322581
F0.0
(I118
F0.5645161290322581
F0.0
tp237
tp238
a(F0.9696969696969697
F0.5
(I119
F0.9696969696969697
F0.5
tp239
tp240
a(F0.9444444444444444
F0.25
(I120
F0.9444444444444444
F0.25
tp241
tp242
a(F0.9772727272727273
F0.8
(I121
F0.9772727272727273
F0.8
tp243
tp244
a(F0.6666666666666666
F0.3333333333333333
(I122
F0.6666666666666666
F0.3333333333333333
tp245
tp246
a(F0.9545454545454546
F0.75
(I123
F0.9545454545454546
F0.75
tp247
tp248
a(F0.9230769230769231
F0.4
(I124
F0.9230769230769231
F0.4
tp249
tp250
a(F0.9565217391304348
F0.6666666666666666
(I125
F0.9565217391304348
F0.6666666666666666
tp251
tp252
a(F0.96
F0.6666666666666666
(I126
F0.96
F0.6666666666666666
tp253
tp254
a(F0.6935483870967742
F0.0
(I127
F0.6935483870967742
F0.0
tp255
tp256
a(F0.9193548387096774
F0.16666666666666666
(I128
F0.9193548387096774
F0.16666666666666666
tp257
tp258
a(F0.8245614035087719
F0.0
(I129
F0.8245614035087719
F0.0
tp259
tp260
a(F0.86
F0.0
(I130
F0.86
F0.0
tp261
tp262
a(F0.9855072463768116
F0.75
(I131
F0.9855072463768116
F0.75
tp263
tp264
a(F0.9555555555555556
F0.6
(I132
F0.9555555555555556
F0.6
tp265
tp266
a(F0.90625
F0.4
(I133
F0.90625
F0.4
tp267
tp268
a(F0.8181818181818182
F0.0
(I134
F0.8181818181818182
F0.0
tp269
tp270
a(F0.9846153846153847
F0.9230769230769231
(I135
F0.9846153846153847
F0.9230769230769231
tp271
tp272
a(F0.9848484848484849
F0.75
(I136
F0.9848484848484849
F0.75
tp273
tp274
a(F0.8695652173913043
F0.25
(I137
F0.8695652173913043
F0.25
tp275
tp276
a(F0.9836065573770492
F0.75
(I138
F0.9836065573770492
F0.75
tp277
tp278
a(F0.7391304347826086
F0.3333333333333333
(I139
F0.7391304347826086
F0.3333333333333333
tp279
tp280
a(F0.9090909090909091
F0.0
(I140
F0.9090909090909091
F0.0
tp281
tp282
a(F0.8775510204081632
F0.3333333333333333
(I141
F0.8775510204081632
F0.3333333333333333
tp283
tp284
a(F0.8
F0.375
(I142
F0.8
F0.375
tp285
tp286
a(F1.0
F1.0
(I143
F1.0
F1.0
tp287
tp288
a(F1.0
F1.0
(I144
F1.0
F1.0
tp289
tp290
a(F1.0
F1.0
(I145
F1.0
F1.0
tp291
tp292
a(F0.9245283018867925
F0.42857142857142855
(I146
F0.9245283018867925
F0.42857142857142855
tp293
tp294
a(F0.9838709677419355
F0.8333333333333334
(I147
F0.9838709677419355
F0.8333333333333334
tp295
tp296
a(F1.0
F1.0
(I148
F1.0
F1.0
tp297
tp298
a(F1.0
F1.0
(I149
F1.0
F1.0
tp299
tp300
a(F0.9726027397260274
F0.75
(I150
F0.9726027397260274
F0.75
tp301
tp302
a(F0.7027027027027027
F0.819672131147541
(I151
F0.7027027027027027
F0.819672131147541
tp303
tp304
a(F1.0
F1.0
(I152
F1.0
F1.0
tp305
tp306
a(F0.9777777777777777
F0.8888888888888888
(I153
F0.9777777777777777
F0.8888888888888888
tp307
tp308
a(F1.0
F1.0
(I154
F1.0
F1.0
tp309
tp310
a(F0.9782608695652174
F0.9583333333333334
(I155
F0.9782608695652174
F0.9583333333333334
tp311
tp312
a(F1.0
F1.0
(I156
F1.0
F1.0
tp313
tp314
a(F1.0
F1.0
(I157
F1.0
F1.0
tp315
tp316
a(F1.0
F1.0
(I158
F1.0
F1.0
tp317
tp318
a(F0.9375
F0.6666666666666666
(I159
F0.9375
F0.6666666666666666
tp319
tp320
a(F0.9803921568627451
F0.8333333333333334
(I160
F0.9803921568627451
F0.8333333333333334
tp321
tp322
a(F0.9545454545454546
F0.9230769230769231
(I161
F0.9545454545454546
F0.9230769230769231
tp323
tp324
a(F1.0
F1.0
(I162
F1.0
F1.0
tp325
tp326
a(F1.0
F1.0
(I163
F1.0
F1.0
tp327
tp328
a(F0.9714285714285714
F0.9772727272727273
(I164
F0.9714285714285714
F0.9772727272727273
tp329
tp330
a(F1.0
F1.0
(I165
F1.0
F1.0
tp331
tp332
a(F1.0
F1.0
(I166
F1.0
F1.0
tp333
tp334
a(F1.0
F1.0
(I167
F1.0
F1.0
tp335
tp336
a(F1.0
F1.0
(I168
F1.0
F1.0
tp337
tp338
a(F1.0
F1.0
(I169
F1.0
F1.0
tp339
tp340
a(F0.9714285714285714
F0.9
(I170
F0.9714285714285714
F0.9
tp341
tp342
a(F1.0
F1.0
(I171
F1.0
F1.0
tp343
tp344
a(F0.8709677419354839
F0.6923076923076923
(I172
F0.8709677419354839
F0.6923076923076923
tp345
tp346
a(F0.94
F0.25
(I173
F0.94
F0.25
tp347
tp348
a(F0.9534883720930233
F0.8
(I174
F0.9534883720930233
F0.8
tp349
tp350
a(F0.8085106382978723
F0.25
(I175
F0.8085106382978723
F0.25
tp351
tp352
a(F0.6470588235294118
F0.0
(I176
F0.6470588235294118
F0.0
tp353
tp354
a(F0.7857142857142857
F0.0
(I177
F0.7857142857142857
F0.0
tp355
tp356
a(F1.0
F1.0
(I178
F1.0
F1.0
tp357
tp358
a(F0.9743589743589743
F0.75
(I179
F0.9743589743589743
F0.75
tp359
tp360
a(F0.07692307692307693
F0.0
(I180
F0.07692307692307693
F0.0
tp361
tp362
a(F0.6071428571428571
F0.08333333333333333
(I181
F0.6071428571428571
F0.08333333333333333
tp363
tp364
a(F0.46774193548387094
F0.029411764705882353
(I182
F0.46774193548387094
F0.029411764705882353
tp365
tp366
a(F0.5882352941176471
F0.08695652173913043
(I183
F0.5882352941176471
F0.08695652173913043
tp367
tp368
a(F0.9736842105263158
F0.9333333333333333
(I184
F0.9736842105263158
F0.9333333333333333
tp369
tp370
a(F0.9666666666666667
F0.8333333333333334
(I185
F0.9666666666666667
F0.8333333333333334
tp371
tp372
a(F0.45454545454545453
F0.0
(I186
F0.45454545454545453
F0.0
tp373
tp374
a(F0.8611111111111112
F0.5833333333333334
(I187
F0.8611111111111112
F0.5833333333333334
tp375
tp376
a(F0.6511627906976745
F0.34782608695652173
(I188
F0.6511627906976745
F0.34782608695652173
tp377
tp378
a(F0.7741935483870968
F0.2222222222222222
(I189
F0.7741935483870968
F0.2222222222222222
tp379
tp380
a(F0.42028985507246375
F0.024390243902439025
(I190
F0.42028985507246375
F0.024390243902439025
tp381
tp382
a(F0.7222222222222222
F0.23076923076923078
(I191
F0.7222222222222222
F0.23076923076923078
tp383
tp384
a(F0.75
F0.5555555555555556
(I192
F0.75
F0.5555555555555556
tp385
tp386
a(F0.9767441860465116
F0.5
(I193
F0.9767441860465116
F0.5
tp387
tp388
a(F0.9056603773584906
F0.5833333333333334
(I194
F0.9056603773584906
F0.5833333333333334
tp389
tp390
a(F1.0
F1.0
(I195
F1.0
F1.0
tp391
tp392
a(F0.94
F0.7
(I196
F0.94
F0.7
tp393
tp394
a(F0.7407407407407407
F0.2222222222222222
(I197
F0.7407407407407407
F0.2222222222222222
tp395
tp396
a(F0.7307692307692307
F0.0
(I198
F0.7307692307692307
F0.0
tp397
tp398
a(F0.9428571428571428
F0.8
(I199
F0.9428571428571428
F0.8
tp399
tp400
a(F0.6774193548387096
F0.0
(I200
F0.6774193548387096
F0.0
tp401
tp402
a(F0.6792452830188679
F0.0
(I201
F0.6792452830188679
F0.0
tp403
tp404
a(F0.43243243243243246
F0.79
(I202
F0.43243243243243246
F0.79
tp405
tp406
a(F0.10526315789473684
F0.48484848484848486
(I203
F0.10526315789473684
F0.48484848484848486
tp407
tp408
a(F0.9743589743589743
F0.5
(I204
F0.9743589743589743
F0.5
tp409
tp410
a(F0.6744186046511628
F0.06666666666666667
(I205
F0.6744186046511628
F0.06666666666666667
tp411
tp412
a(F0.8857142857142857
F0.42857142857142855
(I206
F0.8857142857142857
F0.42857142857142855
tp413
tp414
a(F0.5892857142857143
F0.17857142857142858
(I207
F0.5892857142857143
F0.17857142857142858
tp415
tp416
a(F0.896551724137931
F0.25
(I208
F0.896551724137931
F0.25
tp417
tp418
a(F0.34615384615384615
F0.7848101265822784
(I209
F0.34615384615384615
F0.7848101265822784
tp419
tp420
a(F0.6538461538461539
F0.7272727272727273
(I210
F0.6538461538461539
F0.7272727272727273
tp421
tp422
a(F0.9423076923076923
F0.5
(I211
F0.9423076923076923
F0.5
tp423
tp424
a(F0.9459459459459459
F0.7142857142857143
(I212
F0.9459459459459459
F0.7142857142857143
tp425
tp426
a(F0.25
F0.7272727272727273
(I213
F0.25
F0.7272727272727273
tp427
tp428
a(F0.6730769230769231
F0.10526315789473684
(I214
F0.6730769230769231
F0.10526315789473684
tp429
tp430
a(F0.7450980392156863
F0.0
(I215
F0.7450980392156863
F0.0
tp431
tp432
a(F0.7
F0.5384615384615384
(I216
F0.7
F0.5384615384615384
tp433
tp434
a(F0.9090909090909091
F0.8125
(I217
F0.9090909090909091
F0.8125
tp435
tp436
a(F0.8653846153846154
F0.4166666666666667
(I218
F0.8653846153846154
F0.4166666666666667
tp437
tp438
a(F0.6666666666666666
F0.0
(I219
F0.6666666666666666
F0.0
tp439
tp440
a(F0.7543859649122807
F0.2222222222222222
(I220
F0.7543859649122807
F0.2222222222222222
tp441
tp442
a(F0.23809523809523808
F0.5294117647058824
(I221
F0.23809523809523808
F0.5294117647058824
tp443
tp444
a(F0.9672131147540983
F0.6
(I222
F0.9672131147540983
F0.6
tp445
tp446
a(F0.7272727272727273
F0.3076923076923077
(I223
F0.7272727272727273
F0.3076923076923077
tp447
tp448
a(F0.7916666666666666
F0.8113207547169812
(I224
F0.7916666666666666
F0.8113207547169812
tp449
tp450
a(F0.375
F0.4642857142857143
(I225
F0.375
F0.4642857142857143
tp451
tp452
a(F0.5789473684210527
F0.058823529411764705
(I226
F0.5789473684210527
F0.058823529411764705
tp453
tp454
a(F0.04081632653061224
F0.0
(I227
F0.04081632653061224
F0.0
tp455
tp456
a(F0.9782608695652174
F0.9473684210526315
(I228
F0.9782608695652174
F0.9473684210526315
tp457
tp458
a(F0.5714285714285714
F0.14285714285714285
(I229
F0.5714285714285714
F0.14285714285714285
tp459
tp460
a(F0.5777777777777777
F0.5581395348837209
(I230
F0.5777777777777777
F0.5581395348837209
tp461
tp462
a(F0.9642857142857143
F0.7142857142857143
(I231
F0.9642857142857143
F0.7142857142857143
tp463
tp464
a(F0.5833333333333334
F0.2857142857142857
(I232
F0.5833333333333334
F0.2857142857142857
tp465
tp466
a(F0.8181818181818182
F0.0
(I233
F0.8181818181818182
F0.0
tp467
tp468
a(F0.975
F0.9444444444444444
(I234
F0.975
F0.9444444444444444
tp469
tp470
a(F0.5882352941176471
F0.0
(I235
F0.5882352941176471
F0.0
tp471
tp472
a(F1.0
F1.0
(I236
F1.0
F1.0
tp473
tp474
a(F0.6829268292682927
F0.0
(I237
F0.6829268292682927
F0.0
tp475
tp476
a.