(lp0
(F0.8055555555555556
F0.0
(I0
F0.8055555555555556
F0.0
tp1
tp2
a(F0.8125
F0.25
(I1
F0.8125
F0.25
tp3
tp4
a(F0.3137254901960784
F0.0
(I2
F0.3137254901960784
F0.0
tp5
tp6
a(F0.675
F0.0
(I3
F0.675
F0.0
tp7
tp8
a(F0.21428571428571427
F0.029411764705882353
(I4
F0.21428571428571427
F0.029411764705882353
tp9
tp10
a(F0.8717948717948718
F0.16666666666666666
(I5
F0.8717948717948718
F0.16666666666666666
tp11
tp12
a(F0.2222222222222222
F0.06666666666666667
(I6
F0.2222222222222222
F0.06666666666666667
tp13
tp14
a(F0.5
F0.0
(I7
F0.5
F0.0
tp15
tp16
a(F0.5740740740740741
F0.0
(I8
F0.5740740740740741
F0.0
tp17
tp18
a(F0.2619047619047619
F0.0
(I9
F0.2619047619047619
F0.0
tp19
tp20
a(F0.3333333333333333
F0.0
(I10
F0.3333333333333333
F0.0
tp21
tp22
a(F0.6944444444444444
F0.15384615384615385
(I11
F0.6944444444444444
F0.15384615384615385
tp23
tp24
a(F0.3548387096774194
F0.0
(I12
F0.3548387096774194
F0.0
tp25
tp26
a(F0.96875
F0.875
(I13
F0.96875
F0.875
tp27
tp28
a(F0.24074074074074073
F0.0
(I14
F0.24074074074074073
F0.0
tp29
tp30
a(F0.1
F0.0
(I15
F0.1
F0.0
tp31
tp32
a(F0.5681818181818182
F0.0
(I16
F0.5681818181818182
F0.0
tp33
tp34
a(F0.42105263157894735
F0.043478260869565216
(I17
F0.42105263157894735
F0.043478260869565216
tp35
tp36
a(F0.52
F0.0
(I18
F0.52
F0.0
tp37
tp38
a(F0.3392857142857143
F0.0
(I19
F0.3392857142857143
F0.0
tp39
tp40
a(F0.9736842105263158
F0.8333333333333334
(I20
F0.9736842105263158
F0.8333333333333334
tp41
tp42
a(F0.5416666666666666
F0.043478260869565216
(I21
F0.5416666666666666
F0.043478260869565216
tp43
tp44
a(F0.35
F0.037037037037037035
(I22
F0.35
F0.037037037037037035
tp45
tp46
a(F0.4418604651162791
F0.0
(I23
F0.4418604651162791
F0.0
tp47
tp48
a(F0.1875
F0.0
(I24
F0.1875
F0.0
tp49
tp50
a(F0.5918367346938775
F0.047619047619047616
(I25
F0.5918367346938775
F0.047619047619047616
tp51
tp52
a(F0.6296296296296297
F0.09090909090909091
(I26
F0.6296296296296297
F0.09090909090909091
tp53
tp54
a(F0.3888888888888889
F0.0
(I27
F0.3888888888888889
F0.0
tp55
tp56
a(F0.42424242424242425
F0.0
(I28
F0.42424242424242425
F0.0
tp57
tp58
a(F0.6222222222222222
F0.0
(I29
F0.6222222222222222
F0.0
tp59
tp60
a(F0.8524590163934426
F0.35714285714285715
(I30
F0.8524590163934426
F0.35714285714285715
tp61
tp62
a(F0.8378378378378378
F0.4
(I31
F0.8378378378378378
F0.4
tp63
tp64
a(F0.8378378378378378
F0.4
(I32
F0.8378378378378378
F0.4
tp65
tp66
a(F0.8947368421052632
F0.5555555555555556
(I33
F0.8947368421052632
F0.5555555555555556
tp67
tp68
a(F0.631578947368421
F0.125
(I34
F0.631578947368421
F0.125
tp69
tp70
a(F0.8064516129032258
F0.0
(I35
F0.8064516129032258
F0.0
tp71
tp72
a(F0.6410256410256411
F0.06666666666666667
(I36
F0.6410256410256411
F0.06666666666666667
tp73
tp74
a(F0.875
F0.0
(I37
F0.875
F0.0
tp75
tp76
a(F0.9782608695652174
F0.875
(I38
F0.9782608695652174
F0.875
tp77
tp78
a(F0.65625
F0.0
(I39
F0.65625
F0.0
tp79
tp80
a(F0.8108108108108109
F0.125
(I40
F0.8108108108108109
F0.125
tp81
tp82
a(F0.8387096774193549
F0.4444444444444444
(I41
F0.8387096774193549
F0.4444444444444444
tp83
tp84
a(F1.0
F1.0
(I42
F1.0
F1.0
tp85
tp86
a(F0.8928571428571429
F0.25
(I43
F0.8928571428571429
F0.25
tp87
tp88
a(F0.8392857142857143
F0.0
(I44
F0.8392857142857143
F0.0
tp89
tp90
a(F0.8918918918918919
F0.7647058823529411
(I45
F0.8918918918918919
F0.7647058823529411
tp91
tp92
a(F0.967741935483871
F0.9285714285714286
(I46
F0.967741935483871
F0.9285714285714286
tp93
tp94
a(F0.8787878787878788
F0.6
(I47
F0.8787878787878788
F0.6
tp95
tp96
a(F1.0
F1.0
(I48
F1.0
F1.0
tp97
tp98
a(F0.9565217391304348
F0.8333333333333334
(I49
F0.9565217391304348
F0.8333333333333334
tp99
tp100
a(F1.0
F1.0
(I50
F1.0
F1.0
tp101
tp102
a(F0.7368421052631579
F0.11764705882352941
(I51
F0.7368421052631579
F0.11764705882352941
tp103
tp104
a(F0.6451612903225806
F0.0
(I52
F0.6451612903225806
F0.0
tp105
tp106
a(F0.9574468085106383
F0.875
(I53
F0.9574468085106383
F0.875
tp107
tp108
a(F0.896551724137931
F0.5714285714285714
(I54
F0.896551724137931
F0.5714285714285714
tp109
tp110
a(F0.8125
F0.1
(I55
F0.8125
F0.1
tp111
tp112
a(F0.5714285714285714
F0.25
(I56
F0.5714285714285714
F0.25
tp113
tp114
a(F1.0
F1.0
(I57
F1.0
F1.0
tp115
tp116
a(F0.5846153846153846
F0.06896551724137931
(I58
F0.5846153846153846
F0.06896551724137931
tp117
tp118
a(F0.7323943661971831
F0.0
(I59
F0.7323943661971831
F0.0
tp119
tp120
a(F0.8260869565217391
F0.0
(I60
F0.8260869565217391
F0.0
tp121
tp122
a(F0.7692307692307693
F0.0625
(I61
F0.7692307692307693
F0.0625
tp123
tp124
a(F0.509090909090909
F0.0
(I62
F0.509090909090909
F0.0
tp125
tp126
a(F0.6133333333333333
F0.0
(I63
F0.6133333333333333
F0.0
tp127
tp128
a(F0.5625
F0.0
(I64
F0.5625
F0.0
tp129
tp130
a(F0.5769230769230769
F0.0
(I65
F0.5769230769230769
F0.0
tp131
tp132
a(F0.9230769230769231
F0.5
(I66
F0.9230769230769231
F0.5
tp133
tp134
a(F0.4931506849315068
F0.0
(I67
F0.4931506849315068
F0.0
tp135
tp136
a(F0.7464788732394366
F0.0
(I68
F0.7464788732394366
F0.0
tp137
tp138
a(F0.7857142857142857
F0.0
(I69
F0.7857142857142857
F0.0
tp139
tp140
a(F0.6571428571428571
F0.0
(I70
F0.6571428571428571
F0.0
tp141
tp142
a(F0.5666666666666667
F0.0
(I71
F0.5666666666666667
F0.0
tp143
tp144
a(F0.704225352112676
F0.0
(I72
F0.704225352112676
F0.0
tp145
tp146
a(F0.7272727272727273
F0.0
(I73
F0.7272727272727273
F0.0
tp147
tp148
a(F0.75
F0.1
(I74
F0.75
F0.1
tp149
tp150
a(F0.8309859154929577
F0.0
(I75
F0.8309859154929577
F0.0
tp151
tp152
a(F0.873015873015873
F0.2727272727272727
(I76
F0.873015873015873
F0.2727272727272727
tp153
tp154
a(F0.7647058823529411
F0.0
(I77
F0.7647058823529411
F0.0
tp155
tp156
a(F0.8888888888888888
F0.0
(I78
F0.8888888888888888
F0.0
tp157
tp158
a(F0.9230769230769231
F0.0
(I79
F0.9230769230769231
F0.0
tp159
tp160
a(F0.8666666666666667
F0.42857142857142855
(I80
F0.8666666666666667
F0.42857142857142855
tp161
tp162
a(F0.5510204081632653
F0.0
(I81
F0.5510204081632653
F0.0
tp163
tp164
a(F0.8
F0.7941176470588235
(I82
F0.8
F0.7941176470588235
tp165
tp166
a(F0.5185185185185185
F0.0
(I83
F0.5185185185185185
F0.0
tp167
tp168
a(F0.41025641025641024
F0.0
(I84
F0.41025641025641024
F0.0
tp169
tp170
a(F0.8382352941176471
F0.0
(I85
F0.8382352941176471
F0.0
tp171
tp172
a(F0.9305555555555556
F0.0
(I86
F0.9305555555555556
F0.0
tp173
tp174
a(F0.6756756756756757
F0.07692307692307693
(I87
F0.6756756756756757
F0.07692307692307693
tp175
tp176
a(F0.6037735849056604
F0.0
(I88
F0.6037735849056604
F0.0
tp177
tp178
a(F0.6888888888888889
F0.2631578947368421
(I89
F0.6888888888888889
F0.2631578947368421
tp179
tp180
a(F0.8717948717948718
F0.0
(I90
F0.8717948717948718
F0.0
tp181
tp182
a(F0.9583333333333334
F0.8
(I91
F0.9583333333333334
F0.8
tp183
tp184
a(F0.9811320754716981
F0.8571428571428571
(I92
F0.9811320754716981
F0.8571428571428571
tp185
tp186
a(F0.8947368421052632
F0.5
(I93
F0.8947368421052632
F0.5
tp187
tp188
a(F0.58
F0.08695652173913043
(I94
F0.58
F0.08695652173913043
tp189
tp190
a(F0.9333333333333333
F0.6666666666666666
(I95
F0.9333333333333333
F0.6666666666666666
tp191
tp192
a(F0.2545454545454545
F0.023809523809523808
(I96
F0.2545454545454545
F0.023809523809523808
tp193
tp194
a(F0.9534883720930233
F0.8333333333333334
(I97
F0.9534883720930233
F0.8333333333333334
tp195
tp196
a(F0.7586206896551724
F0.125
(I98
F0.7586206896551724
F0.125
tp197
tp198
a(F0.82
F0.25
(I99
F0.82
F0.25
tp199
tp200
a(F0.9565217391304348
F0.8666666666666667
(I100
F0.9565217391304348
F0.8666666666666667
tp201
tp202
a(F0.6341463414634146
F0.16666666666666666
(I101
F0.6341463414634146
F0.16666666666666666
tp203
tp204
a(F0.7230769230769231
F0.4
(I102
F0.7230769230769231
F0.4
tp205
tp206
a(F0.851063829787234
F0.4166666666666667
(I103
F0.851063829787234
F0.4166666666666667
tp207
tp208
a(F0.5945945945945946
F0.11764705882352941
(I104
F0.5945945945945946
F0.11764705882352941
tp209
tp210
a(F0.8181818181818182
F0.5789473684210527
(I105
F0.8181818181818182
F0.5789473684210527
tp211
tp212
a(F0.8297872340425532
F0.0
(I106
F0.8297872340425532
F0.0
tp213
tp214
a(F0.65
F0.2222222222222222
(I107
F0.65
F0.2222222222222222
tp215
tp216
a(F0.7105263157894737
F0.0
(I108
F0.7105263157894737
F0.0
tp217
tp218
a(F0.8205128205128205
F0.2222222222222222
(I109
F0.8205128205128205
F0.2222222222222222
tp219
tp220
a(F0.9811320754716981
F0.9090909090909091
(I110
F0.9811320754716981
F0.9090909090909091
tp221
tp222
a(F0.98
F0.9565217391304348
(I111
F0.98
F0.9565217391304348
tp223
tp224
a(F0.9428571428571428
F0.7142857142857143
(I112
F0.9428571428571428
F0.7142857142857143
tp225
tp226
a(F0.8301886792452831
F0.1
(I113
F0.8301886792452831
F0.1
tp227
tp228
a(F0.5238095238095238
F0.0
(I114
F0.5238095238095238
F0.0
tp229
tp230
a(F0.9302325581395349
F0.5714285714285714
(I115
F0.9302325581395349
F0.5714285714285714
tp231
tp232
a(F0.9036144578313253
F0.1111111111111111
(I116
F0.9036144578313253
F0.1111111111111111
tp233
tp234
a(F0.9565217391304348
F0.0
(I117
F0.9565217391304348
F0.0
tp235
tp236
a(F0.8924731182795699
F0.09090909090909091
(I118
F0.8924731182795699
F0.09090909090909091
tp237
tp238
a(F0.8783783783783784
F0.1
(I119
F0.8783783783783784
F0.1
tp239
tp240
a(F0.7441860465116279
F0.0
(I120
F0.7441860465116279
F0.0
tp241
tp242
a(F0.46601941747572817
F0.0
(I121
F0.46601941747572817
F0.0
tp243
tp244
a(F0.8780487804878049
F0.375
(I122
F0.8780487804878049
F0.375
tp245
tp246
a(F0.8863636363636364
F0.16666666666666666
(I123
F0.8863636363636364
F0.16666666666666666
tp247
tp248
a(F0.9428571428571428
F0.6666666666666666
(I124
F0.9428571428571428
F0.6666666666666666
tp249
tp250
a(F0.7901234567901234
F0.0
(I125
F0.7901234567901234
F0.0
tp251
tp252
a(F0.6046511627906976
F0.46875
(I126
F0.6046511627906976
F0.46875
tp253
tp254
a(F0.8125
F0.0
(I127
F0.8125
F0.0
tp255
tp256
a(F0.8461538461538461
F0.0
(I128
F0.8461538461538461
F0.0
tp257
tp258
a(F0.6493506493506493
F0.0
(I129
F0.6493506493506493
F0.0
tp259
tp260
a(F0.5641025641025641
F0.02857142857142857
(I130
F0.5641025641025641
F0.02857142857142857
tp261
tp262
a(F0.9125
F0.125
(I131
F0.9125
F0.125
tp263
tp264
a(F0.875
F0.0
(I132
F0.875
F0.0
tp265
tp266
a(F0.6666666666666666
F0.0
(I133
F0.6666666666666666
F0.0
tp267
tp268
a(F0.6853932584269663
F0.0
(I134
F0.6853932584269663
F0.0
tp269
tp270
a(F0.8787878787878788
F0.2
(I135
F0.8787878787878788
F0.2
tp271
tp272
a(F0.45652173913043476
F0.0196078431372549
(I136
F0.45652173913043476
F0.0196078431372549
tp273
tp274
a(F0.8780487804878049
F0.375
(I137
F0.8780487804878049
F0.375
tp275
tp276
a(F0.5730337078651685
F0.0
(I138
F0.5730337078651685
F0.0
tp277
tp278
a(F0.6666666666666666
F0.0
(I139
F0.6666666666666666
F0.0
tp279
tp280
a(F0.8676470588235294
F0.0
(I140
F0.8676470588235294
F0.0
tp281
tp282
a(F0.9558823529411765
F0.4
(I141
F0.9558823529411765
F0.4
tp283
tp284
a(F0.8108108108108109
F0.17647058823529413
(I142
F0.8108108108108109
F0.17647058823529413
tp285
tp286
a(F0.8045977011494253
F0.10526315789473684
(I143
F0.8045977011494253
F0.10526315789473684
tp287
tp288
a(F0.8541666666666666
F0.0
(I144
F0.8541666666666666
F0.0
tp289
tp290
a(F0.5652173913043478
F0.0
(I145
F0.5652173913043478
F0.0
tp291
tp292
a(F0.8545454545454545
F0.0
(I146
F0.8545454545454545
F0.0
tp293
tp294
a(F0.8
F0.14285714285714285
(I147
F0.8
F0.14285714285714285
tp295
tp296
a(F0.6025641025641025
F0.0
(I148
F0.6025641025641025
F0.0
tp297
tp298
a(F0.55
F0.0
(I149
F0.55
F0.0
tp299
tp300
a(F0.7555555555555555
F0.0
(I150
F0.7555555555555555
F0.0
tp301
tp302
a(F0.7346938775510204
F0.0
(I151
F0.7346938775510204
F0.0
tp303
tp304
a(F0.38461538461538464
F0.0
(I152
F0.38461538461538464
F0.0
tp305
tp306
a(F0.6582278481012658
F0.0
(I153
F0.6582278481012658
F0.0
tp307
tp308
a(F0.7352941176470589
F0.0
(I154
F0.7352941176470589
F0.0
tp309
tp310
a(F0.0975609756097561
F0.0
(I155
F0.0975609756097561
F0.0
tp311
tp312
a(F0.5526315789473685
F0.0
(I156
F0.5526315789473685
F0.0
tp313
tp314
a(F0.8444444444444444
F0.5882352941176471
(I157
F0.8444444444444444
F0.5882352941176471
tp315
tp316
a(F0.2247191011235955
F0.0
(I158
F0.2247191011235955
F0.0
tp317
tp318
a(F0.7241379310344828
F0.058823529411764705
(I159
F0.7241379310344828
F0.058823529411764705
tp319
tp320
a(F0.8059701492537313
F0.13333333333333333
(I160
F0.8059701492537313
F0.13333333333333333
tp321
tp322
a(F0.8157894736842105
F0.2222222222222222
(I161
F0.8157894736842105
F0.2222222222222222
tp323
tp324
a(F0.6935483870967742
F0.0
(I162
F0.6935483870967742
F0.0
tp325
tp326
a(F0.24705882352941178
F0.0
(I163
F0.24705882352941178
F0.0
tp327
tp328
a(F0.5348837209302325
F0.0
(I164
F0.5348837209302325
F0.0
tp329
tp330
a(F0.09090909090909091
F0.0
(I165
F0.09090909090909091
F0.0
tp331
tp332
a(F0.3582089552238806
F0.0
(I166
F0.3582089552238806
F0.0
tp333
tp334
a(F0.5849056603773585
F0.0
(I167
F0.5849056603773585
F0.0
tp335
tp336
a(F0.43548387096774194
F0.0
(I168
F0.43548387096774194
F0.0
tp337
tp338
a(F0.5111111111111111
F0.0
(I169
F0.5111111111111111
F0.0
tp339
tp340
a(F0.5223880597014925
F0.0
(I170
F0.5223880597014925
F0.0
tp341
tp342
a(F0.32608695652173914
F0.0
(I171
F0.32608695652173914
F0.0
tp343
tp344
a(F0.8051948051948052
F0.0
(I172
F0.8051948051948052
F0.0
tp345
tp346
a(F0.6481481481481481
F0.05
(I173
F0.6481481481481481
F0.05
tp347
tp348
a(F0.8571428571428571
F0.0
(I174
F0.8571428571428571
F0.0
tp349
tp350
a(F0.8904109589041096
F0.1111111111111111
(I175
F0.8904109589041096
F0.1111111111111111
tp351
tp352
a(F0.49230769230769234
F0.0
(I176
F0.49230769230769234
F0.0
tp353
tp354
a(F0.5306122448979592
F0.041666666666666664
(I177
F0.5306122448979592
F0.041666666666666664
tp355
tp356
a(F0.8571428571428571
F0.0
(I178
F0.8571428571428571
F0.0
tp357
tp358
a(F0.7540983606557377
F0.0
(I179
F0.7540983606557377
F0.0
tp359
tp360
a(F0.6375
F0.03333333333333333
(I180
F0.6375
F0.03333333333333333
tp361
tp362
a(F0.5555555555555556
F0.0
(I181
F0.5555555555555556
F0.0
tp363
tp364
a(F0.6666666666666666
F0.2857142857142857
(I182
F0.6666666666666666
F0.2857142857142857
tp365
tp366
a(F0.8478260869565217
F0.46153846153846156
(I183
F0.8478260869565217
F0.46153846153846156
tp367
tp368
a(F0.9318181818181818
F0.6666666666666666
(I184
F0.9318181818181818
F0.6666666666666666
tp369
tp370
a(F0.6792452830188679
F0.05555555555555555
(I185
F0.6792452830188679
F0.05555555555555555
tp371
tp372
a(F0.7246376811594203
F0.0
(I186
F0.7246376811594203
F0.0
tp373
tp374
a(F0.6949152542372882
F0.05263157894736842
(I187
F0.6949152542372882
F0.05263157894736842
tp375
tp376
a(F0.9459459459459459
F0.5
(I188
F0.9459459459459459
F0.5
tp377
tp378
a(F0.8275862068965517
F0.0
(I189
F0.8275862068965517
F0.0
tp379
tp380
a(F0.7592592592592593
F0.23529411764705882
(I190
F0.7592592592592593
F0.23529411764705882
tp381
tp382
a(F0.8448275862068966
F0.0
(I191
F0.8448275862068966
F0.0
tp383
tp384
a(F0.40789473684210525
F0.0425531914893617
(I192
F0.40789473684210525
F0.0425531914893617
tp385
tp386
a(F0.5423728813559322
F0.06896551724137931
(I193
F0.5423728813559322
F0.06896551724137931
tp387
tp388
a(F0.6222222222222222
F0.05555555555555555
(I194
F0.6222222222222222
F0.05555555555555555
tp389
tp390
a(F0.6538461538461539
F0.0
(I195
F0.6538461538461539
F0.0
tp391
tp392
a(F0.8208955223880597
F0.0
(I196
F0.8208955223880597
F0.0
tp393
tp394
a(F0.3488372093023256
F0.17647058823529413
(I197
F0.3488372093023256
F0.17647058823529413
tp395
tp396
a(F0.6153846153846154
F0.0
(I198
F0.6153846153846154
F0.0
tp397
tp398
a(F0.28
F0.0
(I199
F0.28
F0.0
tp399
tp400
a(F0.88
F0.45454545454545453
(I200
F0.88
F0.45454545454545453
tp401
tp402
a(F0.7619047619047619
F0.11764705882352941
(I201
F0.7619047619047619
F0.11764705882352941
tp403
tp404
a(F0.49206349206349204
F0.058823529411764705
(I202
F0.49206349206349204
F0.058823529411764705
tp405
tp406
a(F0.421875
F0.0
(I203
F0.421875
F0.0
tp407
tp408
a(F0.04285714285714286
F0.0
(I204
F0.04285714285714286
F0.0
tp409
tp410
a(F0.453125
F0.05405405405405406
(I205
F0.453125
F0.05405405405405406
tp411
tp412
a(F0.6744186046511628
F0.0
(I206
F0.6744186046511628
F0.0
tp413
tp414
a(F0.4716981132075472
F0.0
(I207
F0.4716981132075472
F0.0
tp415
tp416
a(F0.6756756756756757
F0.07692307692307693
(I208
F0.6756756756756757
F0.07692307692307693
tp417
tp418
a(F0.5405405405405406
F0.05555555555555555
(I209
F0.5405405405405406
F0.05555555555555555
tp419
tp420
a(F0.5094339622641509
F0.16129032258064516
(I210
F0.5094339622641509
F0.16129032258064516
tp421
tp422
a(F0.5833333333333334
F0.0625
(I211
F0.5833333333333334
F0.0625
tp423
tp424
a(F0.2558139534883721
F0.0
(I212
F0.2558139534883721
F0.0
tp425
tp426
a(F0.6595744680851063
F0.0
(I213
F0.6595744680851063
F0.0
tp427
tp428
a(F0.6909090909090909
F0.0
(I214
F0.6909090909090909
F0.0
tp429
tp430
a(F0.5476190476190477
F0.0
(I215
F0.5476190476190477
F0.0
tp431
tp432
a(F0.26
F0.0
(I216
F0.26
F0.0
tp433
tp434
a(F0.18461538461538463
F0.0
(I217
F0.18461538461538463
F0.0
tp435
tp436
a(F0.015625
F0.0
(I218
F0.015625
F0.0
tp437
tp438
a(F0.1
F0.0
(I219
F0.1
F0.0
tp439
tp440
a(F0.6388888888888888
F0.13333333333333333
(I220
F0.6388888888888888
F0.13333333333333333
tp441
tp442
a(F0.37209302325581395
F0.0
(I221
F0.37209302325581395
F0.0
tp443
tp444
a(F0.09090909090909091
F0.0
(I222
F0.09090909090909091
F0.0
tp445
tp446
a(F0.22033898305084745
F0.0
(I223
F0.22033898305084745
F0.0
tp447
tp448
a(F0.5
F0.0
(I224
F0.5
F0.0
tp449
tp450
a(F0.15873015873015872
F0.0
(I225
F0.15873015873015872
F0.0
tp451
tp452
a(F0.047619047619047616
F0.0
(I226
F0.047619047619047616
F0.0
tp453
tp454
a(F0.2711864406779661
F0.0
(I227
F0.2711864406779661
F0.0
tp455
tp456
a(F0.7333333333333333
F0.0
(I228
F0.7333333333333333
F0.0
tp457
tp458
a(F0.65625
F0.0
(I229
F0.65625
F0.0
tp459
tp460
a(F0.06557377049180328
F0.0
(I230
F0.06557377049180328
F0.0
tp461
tp462
a(F0.5789473684210527
F0.0
(I231
F0.5789473684210527
F0.0
tp463
tp464
a.