(lp0
(F0.9
F0.25
(I0
F0.9
F0.25
tp1
tp2
a(F0.9024390243902439
F0.3333333333333333
(I1
F0.9024390243902439
F0.3333333333333333
tp3
tp4
a(F1.0
F1.0
(I2
F1.0
F1.0
tp5
tp6
a(F0.9607843137254902
F0.7142857142857143
(I3
F0.9607843137254902
F0.7142857142857143
tp7
tp8
a(F0.9615384615384616
F0.8
(I4
F0.9615384615384616
F0.8
tp9
tp10
a(F1.0
F1.0
(I5
F1.0
F1.0
tp11
tp12
a(F0.9772727272727273
F0.8888888888888888
(I6
F0.9772727272727273
F0.8888888888888888
tp13
tp14
a(F0.85
F0.4
(I7
F0.85
F0.4
tp15
tp16
a(F0.9836065573770492
F0.75
(I8
F0.9836065573770492
F0.75
tp17
tp18
a(F1.0
F1.0
(I9
F1.0
F1.0
tp19
tp20
a(F0.9555555555555556
F0.75
(I10
F0.9555555555555556
F0.75
tp21
tp22
a(F0.8333333333333334
F0.4
(I11
F0.8333333333333334
F0.4
tp23
tp24
a(F0.9111111111111111
F0.5555555555555556
(I12
F0.9111111111111111
F0.5555555555555556
tp25
tp26
a(F0.8793103448275862
F0.3
(I13
F0.8793103448275862
F0.3
tp27
tp28
a(F1.0
F1.0
(I14
F1.0
F1.0
tp29
tp30
a(F0.9117647058823529
F0.7692307692307693
(I15
F0.9117647058823529
F0.7692307692307693
tp31
tp32
a(F0.8
F0.36363636363636365
(I16
F0.8
F0.36363636363636365
tp33
tp34
a(F1.0
F1.0
(I17
F1.0
F1.0
tp35
tp36
a(F0.9705882352941176
F0.8888888888888888
(I18
F0.9705882352941176
F0.8888888888888888
tp37
tp38
a(F0.868421052631579
F0.0
(I19
F0.868421052631579
F0.0
tp39
tp40
a(F1.0
F1.0
(I20
F1.0
F1.0
tp41
tp42
a(F0.8571428571428571
F0.4
(I21
F0.8571428571428571
F0.4
tp43
tp44
a(F0.9090909090909091
F0.0
(I22
F0.9090909090909091
F0.0
tp45
tp46
a(F0.9454545454545454
F0.6666666666666666
(I23
F0.9454545454545454
F0.6666666666666666
tp47
tp48
a(F0.9629629629629629
F0.8
(I24
F0.9629629629629629
F0.8
tp49
tp50
a(F0.9117647058823529
F0.7272727272727273
(I25
F0.9117647058823529
F0.7272727272727273
tp51
tp52
a(F1.0
F1.0
(I26
F1.0
F1.0
tp53
tp54
a(F0.9583333333333334
F0.7777777777777778
(I27
F0.9583333333333334
F0.7777777777777778
tp55
tp56
a(F0.9428571428571428
F0.2
(I28
F0.9428571428571428
F0.2
tp57
tp58
a(F1.0
F1.0
(I29
F1.0
F1.0
tp59
tp60
a(F0.9347826086956522
F0.7272727272727273
(I30
F0.9347826086956522
F0.7272727272727273
tp61
tp62
a(F0.7752808988764045
F0.23076923076923078
(I31
F0.7752808988764045
F0.23076923076923078
tp63
tp64
a(F0.9473684210526315
F0.7333333333333333
(I32
F0.9473684210526315
F0.7333333333333333
tp65
tp66
a(F0.9841269841269841
F0.9615384615384616
(I33
F0.9841269841269841
F0.9615384615384616
tp67
tp68
a(F0.8837209302325582
F0.6666666666666666
(I34
F0.8837209302325582
F0.6666666666666666
tp69
tp70
a(F0.9361702127659575
F0.7272727272727273
(I35
F0.9361702127659575
F0.7272727272727273
tp71
tp72
a(F1.0
F1.0
(I36
F1.0
F1.0
tp73
tp74
a(F0.8275862068965517
F0.23076923076923078
(I37
F0.8275862068965517
F0.23076923076923078
tp75
tp76
a(F1.0
F1.0
(I38
F1.0
F1.0
tp77
tp78
a(F0.9868421052631579
F0.9
(I39
F0.9868421052631579
F0.9
tp79
tp80
a(F1.0
F1.0
(I40
F1.0
F1.0
tp81
tp82
a(F1.0
F1.0
(I41
F1.0
F1.0
tp83
tp84
a(F0.9789473684210527
F0.8888888888888888
(I42
F0.9789473684210527
F0.8888888888888888
tp85
tp86
a(F0.9069767441860465
F0.5555555555555556
(I43
F0.9069767441860465
F0.5555555555555556
tp87
tp88
a(F0.7547169811320755
F0.1875
(I44
F0.7547169811320755
F0.1875
tp89
tp90
a(F0.8279569892473119
F0.0
(I45
F0.8279569892473119
F0.0
tp91
tp92
a(F0.819672131147541
F0.08333333333333333
(I46
F0.819672131147541
F0.08333333333333333
tp93
tp94
a(F0.987012987012987
F0.95
(I47
F0.987012987012987
F0.95
tp95
tp96
a(F1.0
F1.0
(I48
F1.0
F1.0
tp97
tp98
a(F0.8169014084507042
F0.723404255319149
(I49
F0.8169014084507042
F0.723404255319149
tp99
tp100
a(F0.9253731343283582
F0.5
(I50
F0.9253731343283582
F0.5
tp101
tp102
a(F0.8888888888888888
F0.5454545454545454
(I51
F0.8888888888888888
F0.5454545454545454
tp103
tp104
a(F0.9607843137254902
F0.6
(I52
F0.9607843137254902
F0.6
tp105
tp106
a(F0.9560439560439561
F0.6
(I53
F0.9560439560439561
F0.6
tp107
tp108
a(F0.9
F0.6
(I54
F0.9
F0.6
tp109
tp110
a(F0.9605263157894737
F0.75
(I55
F0.9605263157894737
F0.75
tp111
tp112
a(F0.782608695652174
F0.375
(I56
F0.782608695652174
F0.375
tp113
tp114
a(F1.0
F1.0
(I57
F1.0
F1.0
tp115
tp116
a(F1.0
F1.0
(I58
F1.0
F1.0
tp117
tp118
a(F0.9705882352941176
F0.8181818181818182
(I59
F0.9705882352941176
F0.8181818181818182
tp119
tp120
a(F1.0
F1.0
(I60
F1.0
F1.0
tp121
tp122
a(F0.9772727272727273
F0.9
(I61
F0.9772727272727273
F0.9
tp123
tp124
a(F0.9210526315789473
F0.6470588235294118
(I62
F0.9210526315789473
F0.6470588235294118
tp125
tp126
a(F0.9591836734693877
F0.8571428571428571
(I63
F0.9591836734693877
F0.8571428571428571
tp127
tp128
a(F0.9444444444444444
F0.6
(I64
F0.9444444444444444
F0.6
tp129
tp130
a(F0.989247311827957
F0.9230769230769231
(I65
F0.989247311827957
F0.9230769230769231
tp131
tp132
a(F1.0
F1.0
(I66
F1.0
F1.0
tp133
tp134
a(F0.9887640449438202
F0.8888888888888888
(I67
F0.9887640449438202
F0.8888888888888888
tp135
tp136
a(F0.8275862068965517
F0.47368421052631576
(I68
F0.8275862068965517
F0.47368421052631576
tp137
tp138
a(F0.9848484848484849
F0.875
(I69
F0.9848484848484849
F0.875
tp139
tp140
a(F0.9878048780487805
F0.9642857142857143
(I70
F0.9878048780487805
F0.9642857142857143
tp141
tp142
a(F0.9821428571428571
F0.875
(I71
F0.9821428571428571
F0.875
tp143
tp144
a(F1.0
F1.0
(I72
F1.0
F1.0
tp145
tp146
a(F0.9886363636363636
F0.6666666666666666
(I73
F0.9886363636363636
F0.6666666666666666
tp147
tp148
a(F0.984375
F0.8888888888888888
(I74
F0.984375
F0.8888888888888888
tp149
tp150
a(F1.0
F1.0
(I75
F1.0
F1.0
tp151
tp152
a(F0.9464285714285714
F0.5714285714285714
(I76
F0.9464285714285714
F0.5714285714285714
tp153
tp154
a(F0.9857142857142858
F0.9705882352941176
(I77
F0.9857142857142858
F0.9705882352941176
tp155
tp156
a(F0.8928571428571429
F0.5
(I78
F0.8928571428571429
F0.5
tp157
tp158
a(F0.9873417721518988
F0.9285714285714286
(I79
F0.9873417721518988
F0.9285714285714286
tp159
tp160
a(F0.9444444444444444
F0.5833333333333334
(I80
F0.9444444444444444
F0.5833333333333334
tp161
tp162
a(F0.8431372549019608
F0.3333333333333333
(I81
F0.8431372549019608
F0.3333333333333333
tp163
tp164
a(F1.0
F1.0
(I82
F1.0
F1.0
tp165
tp166
a(F0.9534883720930233
F0.5
(I83
F0.9534883720930233
F0.5
tp167
tp168
a(F0.9166666666666666
F0.7272727272727273
(I84
F0.9166666666666666
F0.7272727272727273
tp169
tp170
a(F1.0
F1.0
(I85
F1.0
F1.0
tp171
tp172
a(F0.9090909090909091
F0.2
(I86
F0.9090909090909091
F0.2
tp173
tp174
a(F0.9787234042553191
F0.875
(I87
F0.9787234042553191
F0.875
tp175
tp176
a(F0.9603960396039604
F0.5555555555555556
(I88
F0.9603960396039604
F0.5555555555555556
tp177
tp178
a(F0.9545454545454546
F0.0
(I89
F0.9545454545454546
F0.0
tp179
tp180
a(F0.9381443298969072
F0.3333333333333333
(I90
F0.9381443298969072
F0.3333333333333333
tp181
tp182
a(F0.9882352941176471
F0.9090909090909091
(I91
F0.9882352941176471
F0.9090909090909091
tp183
tp184
a(F0.9764705882352941
F0.6666666666666666
(I92
F0.9764705882352941
F0.6666666666666666
tp185
tp186
a(F0.9107142857142857
F0.16666666666666666
(I93
F0.9107142857142857
F0.16666666666666666
tp187
tp188
a(F0.8974358974358975
F0.07692307692307693
(I94
F0.8974358974358975
F0.07692307692307693
tp189
tp190
a(F0.9411764705882353
F0.6363636363636364
(I95
F0.9411764705882353
F0.6363636363636364
tp191
tp192
a(F0.9411764705882353
F0.45454545454545453
(I96
F0.9411764705882353
F0.45454545454545453
tp193
tp194
a(F0.9302325581395349
F0.14285714285714285
(I97
F0.9302325581395349
F0.14285714285714285
tp195
tp196
a(F0.9339622641509434
F0.2222222222222222
(I98
F0.9339622641509434
F0.2222222222222222
tp197
tp198
a(F1.0
F1.0
(I99
F1.0
F1.0
tp199
tp200
a(F0.9615384615384616
F0.625
(I100
F0.9615384615384616
F0.625
tp201
tp202
a(F0.9666666666666667
F0.5
(I101
F0.9666666666666667
F0.5
tp203
tp204
a(F0.8936170212765957
F0.16666666666666666
(I102
F0.8936170212765957
F0.16666666666666666
tp205
tp206
a(F0.9629629629629629
F0.6666666666666666
(I103
F0.9629629629629629
F0.6666666666666666
tp207
tp208
a(F0.864406779661017
F0.1111111111111111
(I104
F0.864406779661017
F0.1111111111111111
tp209
tp210
a(F0.9111111111111111
F0.2727272727272727
(I105
F0.9111111111111111
F0.2727272727272727
tp211
tp212
a(F0.9534883720930233
F0.6666666666666666
(I106
F0.9534883720930233
F0.6666666666666666
tp213
tp214
a(F0.9690721649484536
F0.5
(I107
F0.9690721649484536
F0.5
tp215
tp216
a(F0.9879518072289156
F0.8571428571428571
(I108
F0.9879518072289156
F0.8571428571428571
tp217
tp218
a(F0.9270833333333334
F0.3
(I109
F0.9270833333333334
F0.3
tp219
tp220
a(F1.0
F1.0
(I110
F1.0
F1.0
tp221
tp222
a(F0.9347826086956522
F0.6666666666666666
(I111
F0.9347826086956522
F0.6666666666666666
tp223
tp224
a(F1.0
F1.0
(I112
F1.0
F1.0
tp225
tp226
a(F0.9791666666666666
F0.8
(I113
F0.9791666666666666
F0.8
tp227
tp228
a(F0.972972972972973
F0.6
(I114
F0.972972972972973
F0.6
tp229
tp230
a(F0.90625
F0.9964705882352941
(I115
F0.90625
F0.9964705882352941
tp231
tp232
a(F0.9090909090909091
F0.5714285714285714
(I116
F0.9090909090909091
F0.5714285714285714
tp233
tp234
a(F0.8333333333333334
F0.55
(I117
F0.8333333333333334
F0.55
tp235
tp236
a(F0.9230769230769231
F0.5454545454545454
(I118
F0.9230769230769231
F0.5454545454545454
tp237
tp238
a(F0.9111111111111111
F0.9603960396039604
(I119
F0.9111111111111111
F0.9603960396039604
tp239
tp240
a(F0.868421052631579
F0.5454545454545454
(I120
F0.868421052631579
F0.5454545454545454
tp241
tp242
a(F0.8918918918918919
F0.42857142857142855
(I121
F0.8918918918918919
F0.42857142857142855
tp243
tp244
a(F0.8780487804878049
F0.2857142857142857
(I122
F0.8780487804878049
F0.2857142857142857
tp245
tp246
a(F0.9354838709677419
F0.6
(I123
F0.9354838709677419
F0.6
tp247
tp248
a(F0.8709677419354839
F0.2
(I124
F0.8709677419354839
F0.2
tp249
tp250
a(F0.9375
F0.75
(I125
F0.9375
F0.75
tp251
tp252
a(F0.8666666666666667
F0.5
(I126
F0.8666666666666667
F0.5
tp253
tp254
a(F0.782608695652174
F0.0
(I127
F0.782608695652174
F0.0
tp255
tp256
a(F0.9807692307692307
F0.8
(I128
F0.9807692307692307
F0.8
tp257
tp258
a(F0.8275862068965517
F0.4444444444444444
(I129
F0.8275862068965517
F0.4444444444444444
tp259
tp260
a(F0.9318181818181818
F0.4
(I130
F0.9318181818181818
F0.4
tp261
tp262
a(F0.971830985915493
F0.7777777777777778
(I131
F0.971830985915493
F0.7777777777777778
tp263
tp264
a(F0.8923076923076924
F0.9156626506024096
(I132
F0.8923076923076924
F0.9156626506024096
tp265
tp266
a(F0.9038461538461539
F0.4444444444444444
(I133
F0.9038461538461539
F0.4444444444444444
tp267
tp268
a(F0.96875
F0.9090909090909091
(I134
F0.96875
F0.9090909090909091
tp269
tp270
a(F0.9193548387096774
F0.9586776859504132
(I135
F0.9193548387096774
F0.9586776859504132
tp271
tp272
a(F0.96
F0.8333333333333334
(I136
F0.96
F0.8333333333333334
tp273
tp274
a(F0.8947368421052632
F0.9591836734693877
(I137
F0.8947368421052632
F0.9591836734693877
tp275
tp276
a(F0.8813559322033898
F0.3
(I138
F0.8813559322033898
F0.3
tp277
tp278
a(F0.8524590163934426
F0.0
(I139
F0.8524590163934426
F0.0
tp279
tp280
a(F0.9523809523809523
F0.5714285714285714
(I140
F0.9523809523809523
F0.5714285714285714
tp281
tp282
a(F0.94
F0.5
(I141
F0.94
F0.5
tp283
tp284
a(F0.8153846153846154
F0.14285714285714285
(I142
F0.8153846153846154
F0.14285714285714285
tp285
tp286
a(F0.9090909090909091
F0.25
(I143
F0.9090909090909091
F0.25
tp287
tp288
a(F0.9848484848484849
F0.9444444444444444
(I144
F0.9848484848484849
F0.9444444444444444
tp289
tp290
a(F1.0
F1.0
(I145
F1.0
F1.0
tp291
tp292
a(F0.967741935483871
F0.8
(I146
F0.967741935483871
F0.8
tp293
tp294
a(F0.8648648648648649
F0.0
(I147
F0.8648648648648649
F0.0
tp295
tp296
a(F0.8461538461538461
F0.1111111111111111
(I148
F0.8461538461538461
F0.1111111111111111
tp297
tp298
a(F0.8163265306122449
F0.0
(I149
F0.8163265306122449
F0.0
tp299
tp300
a(F0.6666666666666666
F0.0
(I150
F0.6666666666666666
F0.0
tp301
tp302
a(F1.0
F1.0
(I151
F1.0
F1.0
tp303
tp304
a(F0.88
F0.1
(I152
F0.88
F0.1
tp305
tp306
a(F0.8113207547169812
F0.09090909090909091
(I153
F0.8113207547169812
F0.09090909090909091
tp307
tp308
a(F0.8805970149253731
F0.5294117647058824
(I154
F0.8805970149253731
F0.5294117647058824
tp309
tp310
a(F0.7272727272727273
F0.16666666666666666
(I155
F0.7272727272727273
F0.16666666666666666
tp311
tp312
a(F0.9423076923076923
F0.8888888888888888
(I156
F0.9423076923076923
F0.8888888888888888
tp313
tp314
a(F0.9512195121951219
F0.8181818181818182
(I157
F0.9512195121951219
F0.8181818181818182
tp315
tp316
a(F0.8918918918918919
F0.5555555555555556
(I158
F0.8918918918918919
F0.5555555555555556
tp317
tp318
a(F1.0
F1.0
(I159
F1.0
F1.0
tp319
tp320
a(F0.8831168831168831
F0.35714285714285715
(I160
F0.8831168831168831
F0.35714285714285715
tp321
tp322
a(F0.8947368421052632
F0.2
(I161
F0.8947368421052632
F0.2
tp323
tp324
a(F1.0
F1.0
(I162
F1.0
F1.0
tp325
tp326
a(F0.9148936170212766
F0.5555555555555556
(I163
F0.9148936170212766
F0.5555555555555556
tp327
tp328
a(F0.9714285714285714
F0.9354838709677419
(I164
F0.9714285714285714
F0.9354838709677419
tp329
tp330
a(F0.8979591836734694
F0.8648648648648649
(I165
F0.8979591836734694
F0.8648648648648649
tp331
tp332
a(F0.9516129032258065
F0.7272727272727273
(I166
F0.9516129032258065
F0.7272727272727273
tp333
tp334
a(F0.9473684210526315
F0.8
(I167
F0.9473684210526315
F0.8
tp335
tp336
a(F0.971830985915493
F0.9230769230769231
(I168
F0.971830985915493
F0.9230769230769231
tp337
tp338
a(F0.9111111111111111
F0.42857142857142855
(I169
F0.9111111111111111
F0.42857142857142855
tp339
tp340
a(F0.9387755102040817
F0.75
(I170
F0.9387755102040817
F0.75
tp341
tp342
a(F0.9487179487179487
F0.6363636363636364
(I171
F0.9487179487179487
F0.6363636363636364
tp343
tp344
a(F0.8444444444444444
F0.3
(I172
F0.8444444444444444
F0.3
tp345
tp346
a(F0.9069767441860465
F0.4666666666666667
(I173
F0.9069767441860465
F0.4666666666666667
tp347
tp348
a(F0.8823529411764706
F0.375
(I174
F0.8823529411764706
F0.375
tp349
tp350
a(F0.9594594594594594
F0.5714285714285714
(I175
F0.9594594594594594
F0.5714285714285714
tp351
tp352
a(F0.9857142857142858
F0.9
(I176
F0.9857142857142858
F0.9
tp353
tp354
a(F1.0
F1.0
(I177
F1.0
F1.0
tp355
tp356
a(F0.7727272727272727
F0.2857142857142857
(I178
F0.7727272727272727
F0.2857142857142857
tp357
tp358
a(F0.8823529411764706
F0.7241379310344828
(I179
F0.8823529411764706
F0.7241379310344828
tp359
tp360
a(F0.9696969696969697
F0.0
(I180
F0.9696969696969697
F0.0
tp361
tp362
a(F0.9473684210526315
F0.5
(I181
F0.9473684210526315
F0.5
tp363
tp364
a(F0.9452054794520548
F0.6363636363636364
(I182
F0.9452054794520548
F0.6363636363636364
tp365
tp366
a(F1.0
F1.0
(I183
F1.0
F1.0
tp367
tp368
a(F0.8545454545454545
F0.1111111111111111
(I184
F0.8545454545454545
F0.1111111111111111
tp369
tp370
a(F0.9807692307692307
F0.75
(I185
F0.9807692307692307
F0.75
tp371
tp372
a(F0.9459459459459459
F0.8518518518518519
(I186
F0.9459459459459459
F0.8518518518518519
tp373
tp374
a(F0.7777777777777778
F0.058823529411764705
(I187
F0.7777777777777778
F0.058823529411764705
tp375
tp376
a(F0.85
F0.4
(I188
F0.85
F0.4
tp377
tp378
a(F0.9714285714285714
F0.8181818181818182
(I189
F0.9714285714285714
F0.8181818181818182
tp379
tp380
a(F0.8409090909090909
F0.0
(I190
F0.8409090909090909
F0.0
tp381
tp382
a(F0.6981132075471698
F0.0
(I191
F0.6981132075471698
F0.0
tp383
tp384
a(F1.0
F1.0
(I192
F1.0
F1.0
tp385
tp386
a(F0.9047619047619048
F0.2
(I193
F0.9047619047619048
F0.2
tp387
tp388
a(F0.9074074074074074
F0.5833333333333334
(I194
F0.9074074074074074
F0.5833333333333334
tp389
tp390
a(F0.9166666666666666
F0.375
(I195
F0.9166666666666666
F0.375
tp391
tp392
a(F0.9565217391304348
F0.875
(I196
F0.9565217391304348
F0.875
tp393
tp394
a(F0.8
F0.25
(I197
F0.8
F0.25
tp395
tp396
a(F0.9411764705882353
F0.6666666666666666
(I198
F0.9411764705882353
F0.6666666666666666
tp397
tp398
a(F0.8103448275862069
F0.0
(I199
F0.8103448275862069
F0.0
tp399
tp400
a(F0.7076923076923077
F0.05
(I200
F0.7076923076923077
F0.05
tp401
tp402
a(F0.9642857142857143
F0.8947368421052632
(I201
F0.9642857142857143
F0.8947368421052632
tp403
tp404
a.