(lp0
(F0.9285714285714286
F0.14285714285714285
(I0
F0.9285714285714286
F0.14285714285714285
tp1
tp2
a(F1.0
F1.0
(I1
F1.0
F1.0
tp3
tp4
a(F0.64
F0.0
(I2
F0.64
F0.0
tp5
tp6
a(F0.8876404494382022
F0.0
(I3
F0.8876404494382022
F0.0
tp7
tp8
a(F0.96875
F0.6666666666666666
(I4
F0.96875
F0.6666666666666666
tp9
tp10
a(F0.9529411764705882
F0.42857142857142855
(I5
F0.9529411764705882
F0.42857142857142855
tp11
tp12
a(F0.8409090909090909
F0.06666666666666667
(I6
F0.8409090909090909
F0.06666666666666667
tp13
tp14
a(F0.9846153846153847
F0.8
(I7
F0.9846153846153847
F0.8
tp15
tp16
a(F0.9772727272727273
F0.875
(I8
F0.9772727272727273
F0.875
tp17
tp18
a(F0.8909090909090909
F0.0
(I9
F0.8909090909090909
F0.0
tp19
tp20
a(F0.9382716049382716
F0.2857142857142857
(I10
F0.9382716049382716
F0.2857142857142857
tp21
tp22
a(F0.875
F0.25
(I11
F0.875
F0.25
tp23
tp24
a(F1.0
F1.0
(I12
F1.0
F1.0
tp25
tp26
a(F0.9215686274509803
F0.2
(I13
F0.9215686274509803
F0.2
tp27
tp28
a(F0.5853658536585366
F0.19047619047619047
(I14
F0.5853658536585366
F0.19047619047619047
tp29
tp30
a(F0.9405940594059405
F0.25
(I15
F0.9405940594059405
F0.25
tp31
tp32
a(F0.9104477611940298
F0.3333333333333333
(I16
F0.9104477611940298
F0.3333333333333333
tp33
tp34
a(F0.8461538461538461
F0.1111111111111111
(I17
F0.8461538461538461
F0.1111111111111111
tp35
tp36
a(F1.0
F1.0
(I18
F1.0
F1.0
tp37
tp38
a(F0.9607843137254902
F0.5
(I19
F0.9607843137254902
F0.5
tp39
tp40
a(F1.0
F1.0
(I20
F1.0
F1.0
tp41
tp42
a(F1.0
F1.0
(I21
F1.0
F1.0
tp43
tp44
a(F0.9886363636363636
F0.6666666666666666
(I22
F0.9886363636363636
F0.6666666666666666
tp45
tp46
a(F0.9680851063829787
F0.4
(I23
F0.9680851063829787
F0.4
tp47
tp48
a(F1.0
F1.0
(I24
F1.0
F1.0
tp49
tp50
a(F0.9880952380952381
F0.8571428571428571
(I25
F0.9880952380952381
F0.8571428571428571
tp51
tp52
a(F0.9775280898876404
F0.3333333333333333
(I26
F0.9775280898876404
F0.3333333333333333
tp53
tp54
a(F0.9574468085106383
F0.5
(I27
F0.9574468085106383
F0.5
tp55
tp56
a(F0.896551724137931
F0.0
(I28
F0.896551724137931
F0.0
tp57
tp58
a(F0.9117647058823529
F0.5
(I29
F0.9117647058823529
F0.5
tp59
tp60
a(F0.9135802469135802
F0.0
(I30
F0.9135802469135802
F0.0
tp61
tp62
a(F0.9436619718309859
F0.42857142857142855
(I31
F0.9436619718309859
F0.42857142857142855
tp63
tp64
a(F0.8805970149253731
F0.0
(I32
F0.8805970149253731
F0.0
tp65
tp66
a(F0.9285714285714286
F0.6666666666666666
(I33
F0.9285714285714286
F0.6666666666666666
tp67
tp68
a(F0.75
F0.13333333333333333
(I34
F0.75
F0.13333333333333333
tp69
tp70
a(F0.8983050847457628
F0.25
(I35
F0.8983050847457628
F0.25
tp71
tp72
a(F0.8688524590163934
F0.1111111111111111
(I36
F0.8688524590163934
F0.1111111111111111
tp73
tp74
a(F0.875
F0.0
(I37
F0.875
F0.0
tp75
tp76
a(F0.9452054794520548
F0.2
(I38
F0.9452054794520548
F0.2
tp77
tp78
a(F0.8985507246376812
F0.125
(I39
F0.8985507246376812
F0.125
tp79
tp80
a(F0.9565217391304348
F0.6666666666666666
(I40
F0.9565217391304348
F0.6666666666666666
tp81
tp82
a(F0.8771929824561403
F0.3
(I41
F0.8771929824561403
F0.3
tp83
tp84
a(F0.9333333333333333
F0.4444444444444444
(I42
F0.9333333333333333
F0.4444444444444444
tp85
tp86
a(F0.921875
F0.4444444444444444
(I43
F0.921875
F0.4444444444444444
tp87
tp88
a(F0.8805970149253731
F0.1111111111111111
(I44
F0.8805970149253731
F0.1111111111111111
tp89
tp90
a(F0.9146341463414634
F0.125
(I45
F0.9146341463414634
F0.125
tp91
tp92
a(F0.8
F0.10526315789473684
(I46
F0.8
F0.10526315789473684
tp93
tp94
a(F0.85
F0.18181818181818182
(I47
F0.85
F0.18181818181818182
tp95
tp96
a(F0.7924528301886793
F0.3888888888888889
(I48
F0.7924528301886793
F0.3888888888888889
tp97
tp98
a(F0.972972972972973
F0.6666666666666666
(I49
F0.972972972972973
F0.6666666666666666
tp99
tp100
a(F0.8157894736842105
F0.0
(I50
F0.8157894736842105
F0.0
tp101
tp102
a(F0.8059701492537313
F0.0
(I51
F0.8059701492537313
F0.0
tp103
tp104
a(F0.7808219178082192
F0.0
(I52
F0.7808219178082192
F0.0
tp105
tp106
a(F0.7857142857142857
F0.11764705882352941
(I53
F0.7857142857142857
F0.11764705882352941
tp107
tp108
a(F0.8902439024390244
F0.0
(I54
F0.8902439024390244
F0.0
tp109
tp110
a(F0.8941176470588236
F0.3076923076923077
(I55
F0.8941176470588236
F0.3076923076923077
tp111
tp112
a(F0.9066666666666666
F0.3
(I56
F0.9066666666666666
F0.3
tp113
tp114
a(F0.896551724137931
F0.5
(I57
F0.896551724137931
F0.5
tp115
tp116
a(F0.5714285714285714
F0.7906976744186046
(I58
F0.5714285714285714
F0.7906976744186046
tp117
tp118
a(F0.8985507246376812
F0.2222222222222222
(I59
F0.8985507246376812
F0.2222222222222222
tp119
tp120
a(F0.7017543859649122
F0.8316831683168316
(I60
F0.7017543859649122
F0.8316831683168316
tp121
tp122
a(F1.0
F1.0
(I61
F1.0
F1.0
tp123
tp124
a(F0.9473684210526315
F0.0
(I62
F0.9473684210526315
F0.0
tp125
tp126
a(F0.8333333333333334
F0.2222222222222222
(I63
F0.8333333333333334
F0.2222222222222222
tp127
tp128
a(F0.5841584158415841
F0.045454545454545456
(I64
F0.5841584158415841
F0.045454545454545456
tp129
tp130
a(F0.8923076923076924
F0.2222222222222222
(I65
F0.8923076923076924
F0.2222222222222222
tp131
tp132
a(F0.9090909090909091
F0.0
(I66
F0.9090909090909091
F0.0
tp133
tp134
a(F0.8928571428571429
F0.0
(I67
F0.8928571428571429
F0.0
tp135
tp136
a(F0.9456521739130435
F0.16666666666666666
(I68
F0.9456521739130435
F0.16666666666666666
tp137
tp138
a(F0.7752808988764045
F0.047619047619047616
(I69
F0.7752808988764045
F0.047619047619047616
tp139
tp140
a(F0.2564102564102564
F0.7433628318584071
(I70
F0.2564102564102564
F0.7433628318584071
tp141
tp142
a(F0.5581395348837209
F0.8515625
(I71
F0.5581395348837209
F0.8515625
tp143
tp144
a(F0.927536231884058
F0.375
(I72
F0.927536231884058
F0.375
tp145
tp146
a(F0.8928571428571429
F0.9469026548672567
(I73
F0.8928571428571429
F0.9469026548672567
tp147
tp148
a(F0.9090909090909091
F0.2
(I74
F0.9090909090909091
F0.2
tp149
tp150
a(F0.9365079365079365
F0.3333333333333333
(I75
F0.9365079365079365
F0.3333333333333333
tp151
tp152
a(F0.875
F0.14285714285714285
(I76
F0.875
F0.14285714285714285
tp153
tp154
a(F0.8571428571428571
F0.0
(I77
F0.8571428571428571
F0.0
tp155
tp156
a(F0.7954545454545454
F0.1
(I78
F0.7954545454545454
F0.1
tp157
tp158
a(F0.9493670886075949
F0.2
(I79
F0.9493670886075949
F0.2
tp159
tp160
a(F0.9659090909090909
F0.25
(I80
F0.9659090909090909
F0.25
tp161
tp162
a(F0.4375
F0.8548387096774194
(I81
F0.4375
F0.8548387096774194
tp163
tp164
a(F0.9375
F0.4444444444444444
(I82
F0.9375
F0.4444444444444444
tp165
tp166
a(F0.8536585365853658
F0.9016393442622951
(I83
F0.8536585365853658
F0.9016393442622951
tp167
tp168
a(F0.9117647058823529
F0.0
(I84
F0.9117647058823529
F0.0
tp169
tp170
a(F0.9662921348314607
F0.0
(I85
F0.9662921348314607
F0.0
tp171
tp172
a(F0.9651162790697675
F0.4
(I86
F0.9651162790697675
F0.4
tp173
tp174
a(F0.9135802469135802
F0.0
(I87
F0.9135802469135802
F0.0
tp175
tp176
a(F0.15151515151515152
F0.7511111111111111
(I88
F0.15151515151515152
F0.7511111111111111
tp177
tp178
a(F0.6025641025641025
F0.6309523809523809
(I89
F0.6025641025641025
F0.6309523809523809
tp179
tp180
a(F0.5714285714285714
F0.8716577540106952
(I90
F0.5714285714285714
F0.8716577540106952
tp181
tp182
a(F0.9
F0.5
(I91
F0.9
F0.5
tp183
tp184
a(F0.9534883720930233
F0.3333333333333333
(I92
F0.9534883720930233
F0.3333333333333333
tp185
tp186
a(F0.9342105263157895
F0.2857142857142857
(I93
F0.9342105263157895
F0.2857142857142857
tp187
tp188
a(F0.8787878787878788
F0.3333333333333333
(I94
F0.8787878787878788
F0.3333333333333333
tp189
tp190
a(F0.9175257731958762
F0.0
(I95
F0.9175257731958762
F0.0
tp191
tp192
a(F1.0
F1.0
(I96
F1.0
F1.0
tp193
tp194
a(F0.9879518072289156
F0.8333333333333334
(I97
F0.9879518072289156
F0.8333333333333334
tp195
tp196
a(F0.8888888888888888
F0.0
(I98
F0.8888888888888888
F0.0
tp197
tp198
a(F0.9428571428571428
F0.6666666666666666
(I99
F0.9428571428571428
F0.6666666666666666
tp199
tp200
a(F0.9545454545454546
F0.5
(I100
F0.9545454545454546
F0.5
tp201
tp202
a(F0.9333333333333333
F0.0
(I101
F0.9333333333333333
F0.0
tp203
tp204
a(F0.9117647058823529
F0.25
(I102
F0.9117647058823529
F0.25
tp205
tp206
a(F0.875
F0.3125
(I103
F0.875
F0.3125
tp207
tp208
a(F0.8055555555555556
F0.06666666666666667
(I104
F0.8055555555555556
F0.06666666666666667
tp209
tp210
a(F0.9315068493150684
F0.2857142857142857
(I105
F0.9315068493150684
F0.2857142857142857
tp211
tp212
a(F0.8690476190476191
F0.15384615384615385
(I106
F0.8690476190476191
F0.15384615384615385
tp213
tp214
a(F0.7741935483870968
F0.0
(I107
F0.7741935483870968
F0.0
tp215
tp216
a(F0.96
F0.5
(I108
F0.96
F0.5
tp217
tp218
a(F0.9215686274509803
F0.42857142857142855
(I109
F0.9215686274509803
F0.42857142857142855
tp219
tp220
a(F0.88
F0.47058823529411764
(I110
F0.88
F0.47058823529411764
tp221
tp222
a(F0.9647058823529412
F0.25
(I111
F0.9647058823529412
F0.25
tp223
tp224
a(F0.9736842105263158
F0.6666666666666666
(I112
F0.9736842105263158
F0.6666666666666666
tp225
tp226
a(F0.9176470588235294
F0.0
(I113
F0.9176470588235294
F0.0
tp227
tp228
a(F0.84
F0.15789473684210525
(I114
F0.84
F0.15789473684210525
tp229
tp230
a(F0.7804878048780488
F0.4
(I115
F0.7804878048780488
F0.4
tp231
tp232
a(F0.8947368421052632
F0.3333333333333333
(I116
F0.8947368421052632
F0.3333333333333333
tp233
tp234
a(F0.9078947368421053
F0.3
(I117
F0.9078947368421053
F0.3
tp235
tp236
a(F0.8602150537634409
F0.0
(I118
F0.8602150537634409
F0.0
tp237
tp238
a(F0.9242424242424242
F0.375
(I119
F0.9242424242424242
F0.375
tp239
tp240
a(F0.7837837837837838
F0.0
(I120
F0.7837837837837838
F0.0
tp241
tp242
a(F0.8372093023255814
F0.2631578947368421
(I121
F0.8372093023255814
F0.2631578947368421
tp243
tp244
a(F0.9545454545454546
F0.8461538461538461
(I122
F0.9545454545454546
F0.8461538461538461
tp245
tp246
a(F0.8518518518518519
F0.2
(I123
F0.8518518518518519
F0.2
tp247
tp248
a(F0.96875
F0.8888888888888888
(I124
F0.96875
F0.8888888888888888
tp249
tp250
a(F0.9466666666666667
F0.2
(I125
F0.9466666666666667
F0.2
tp251
tp252
a(F0.8837209302325582
F0.16666666666666666
(I126
F0.8837209302325582
F0.16666666666666666
tp253
tp254
a(F0.8611111111111112
F0.2857142857142857
(I127
F0.8611111111111112
F0.2857142857142857
tp255
tp256
a(F0.8873239436619719
F0.2
(I128
F0.8873239436619719
F0.2
tp257
tp258
a(F0.8493150684931506
F0.08333333333333333
(I129
F0.8493150684931506
F0.08333333333333333
tp259
tp260
a(F0.56
F0.12
(I130
F0.56
F0.12
tp261
tp262
a(F0.9
F0.4
(I131
F0.9
F0.4
tp263
tp264
a(F0.8933333333333333
F0.1111111111111111
(I132
F0.8933333333333333
F0.1111111111111111
tp265
tp266
a(F0.7681159420289855
F0.1111111111111111
(I133
F0.7681159420289855
F0.1111111111111111
tp267
tp268
a(F0.9107142857142857
F0.375
(I134
F0.9107142857142857
F0.375
tp269
tp270
a(F0.7014925373134329
F0.0
(I135
F0.7014925373134329
F0.0
tp271
tp272
a(F0.7142857142857143
F0.0
(I136
F0.7142857142857143
F0.0
tp273
tp274
a(F0.85
F0.0
(I137
F0.85
F0.0
tp275
tp276
a(F0.6170212765957447
F0.14285714285714285
(I138
F0.6170212765957447
F0.14285714285714285
tp277
tp278
a(F0.8214285714285714
F0.375
(I139
F0.8214285714285714
F0.375
tp279
tp280
a(F0.8444444444444444
F0.0
(I140
F0.8444444444444444
F0.0
tp281
tp282
a(F0.9104477611940298
F0.3333333333333333
(I141
F0.9104477611940298
F0.3333333333333333
tp283
tp284
a(F0.8333333333333334
F0.3076923076923077
(I142
F0.8333333333333334
F0.3076923076923077
tp285
tp286
a(F0.84
F0.0
(I143
F0.84
F0.0
tp287
tp288
a(F0.7922077922077922
F0.058823529411764705
(I144
F0.7922077922077922
F0.058823529411764705
tp289
tp290
a(F0.9436619718309859
F0.5555555555555556
(I145
F0.9436619718309859
F0.5555555555555556
tp291
tp292
a(F0.8484848484848485
F0.2857142857142857
(I146
F0.8484848484848485
F0.2857142857142857
tp293
tp294
a(F0.8769230769230769
F0.0
(I147
F0.8769230769230769
F0.0
tp295
tp296
a(F0.8333333333333334
F0.2
(I148
F0.8333333333333334
F0.2
tp297
tp298
a(F0.9056603773584906
F0.16666666666666666
(I149
F0.9056603773584906
F0.16666666666666666
tp299
tp300
a(F0.9466666666666667
F0.3333333333333333
(I150
F0.9466666666666667
F0.3333333333333333
tp301
tp302
a(F0.9875
F0.8571428571428571
(I151
F0.9875
F0.8571428571428571
tp303
tp304
a(F0.8604651162790697
F0.14285714285714285
(I152
F0.8604651162790697
F0.14285714285714285
tp305
tp306
a(F0.9444444444444444
F0.5555555555555556
(I153
F0.9444444444444444
F0.5555555555555556
tp307
tp308
a(F0.8793103448275862
F0.125
(I154
F0.8793103448275862
F0.125
tp309
tp310
a(F0.8513513513513513
F0.08333333333333333
(I155
F0.8513513513513513
F0.08333333333333333
tp311
tp312
a(F1.0
F1.0
(I156
F1.0
F1.0
tp313
tp314
a(F0.6231884057971014
F0.07142857142857142
(I157
F0.6231884057971014
F0.07142857142857142
tp315
tp316
a(F0.9318181818181818
F0.25
(I158
F0.9318181818181818
F0.25
tp317
tp318
a(F0.9367088607594937
F0.375
(I159
F0.9367088607594937
F0.375
tp319
tp320
a(F0.7222222222222222
F0.0625
(I160
F0.7222222222222222
F0.0625
tp321
tp322
a(F0.9436619718309859
F0.42857142857142855
(I161
F0.9436619718309859
F0.42857142857142855
tp323
tp324
a(F0.9322033898305084
F0.2
(I162
F0.9322033898305084
F0.2
tp325
tp326
a(F0.972972972972973
F0.3333333333333333
(I163
F0.972972972972973
F0.3333333333333333
tp327
tp328
a(F0.875
F0.125
(I164
F0.875
F0.125
tp329
tp330
a(F0.9056603773584906
F0.375
(I165
F0.9056603773584906
F0.375
tp331
tp332
a(F1.0
F1.0
(I166
F1.0
F1.0
tp333
tp334
a(F0.8611111111111112
F0.0
(I167
F0.8611111111111112
F0.0
tp335
tp336
a(F0.9038461538461539
F0.16666666666666666
(I168
F0.9038461538461539
F0.16666666666666666
tp337
tp338
a(F1.0
F1.0
(I169
F1.0
F1.0
tp339
tp340
a(F0.8970588235294118
F0.0
(I170
F0.8970588235294118
F0.0
tp341
tp342
a(F0.9534883720930233
F0.6666666666666666
(I171
F0.9534883720930233
F0.6666666666666666
tp343
tp344
a(F0.8783783783783784
F0.25
(I172
F0.8783783783783784
F0.25
tp345
tp346
a(F0.9324324324324325
F0.2857142857142857
(I173
F0.9324324324324325
F0.2857142857142857
tp347
tp348
a(F0.9583333333333334
F0.5
(I174
F0.9583333333333334
F0.5
tp349
tp350
a(F0.9298245614035088
F0.2
(I175
F0.9298245614035088
F0.2
tp351
tp352
a(F0.7924528301886793
F0.08333333333333333
(I176
F0.7924528301886793
F0.08333333333333333
tp353
tp354
a(F0.9402985074626866
F0.3333333333333333
(I177
F0.9402985074626866
F0.3333333333333333
tp355
tp356
a(F0.7608695652173914
F0.08333333333333333
(I178
F0.7608695652173914
F0.08333333333333333
tp357
tp358
a(F0.9824561403508771
F0.5
(I179
F0.9824561403508771
F0.5
tp359
tp360
a(F0.9682539682539683
F0.6
(I180
F0.9682539682539683
F0.6
tp361
tp362
a(F0.8518518518518519
F0.0
(I181
F0.8518518518518519
F0.0
tp363
tp364
a(F0.8888888888888888
F0.0
(I182
F0.8888888888888888
F0.0
tp365
tp366
a(F0.8979591836734694
F0.0
(I183
F0.8979591836734694
F0.0
tp367
tp368
a(F0.9210526315789473
F0.5
(I184
F0.9210526315789473
F0.5
tp369
tp370
a(F0.847457627118644
F0.0
(I185
F0.847457627118644
F0.0
tp371
tp372
a(F0.8840579710144928
F0.1111111111111111
(I186
F0.8840579710144928
F0.1111111111111111
tp373
tp374
a(F0.92
F0.0
(I187
F0.92
F0.0
tp375
tp376
a(F0.9285714285714286
F0.0
(I188
F0.9285714285714286
F0.0
tp377
tp378
a(F0.9848484848484849
F0.75
(I189
F0.9848484848484849
F0.75
tp379
tp380
a(F0.9230769230769231
F0.375
(I190
F0.9230769230769231
F0.375
tp381
tp382
a(F0.9333333333333333
F0.4
(I191
F0.9333333333333333
F0.4
tp383
tp384
a(F0.8666666666666667
F0.09090909090909091
(I192
F0.8666666666666667
F0.09090909090909091
tp385
tp386
a(F0.9444444444444444
F0.5
(I193
F0.9444444444444444
F0.5
tp387
tp388
a(F0.8656716417910447
F0.1
(I194
F0.8656716417910447
F0.1
tp389
tp390
a(F0.8923076923076924
F0.0
(I195
F0.8923076923076924
F0.0
tp391
tp392
a(F0.9375
F0.25
(I196
F0.9375
F0.25
tp393
tp394
a(F0.7936507936507936
F0.0
(I197
F0.7936507936507936
F0.0
tp395
tp396
a(F0.9375
F0.75
(I198
F0.9375
F0.75
tp397
tp398
a(F0.9
F0.3333333333333333
(I199
F0.9
F0.3333333333333333
tp399
tp400
a(F0.9821428571428571
F0.6666666666666666
(I200
F0.9821428571428571
F0.6666666666666666
tp401
tp402
a(F0.8732394366197183
F0.1
(I201
F0.8732394366197183
F0.1
tp403
tp404
a(F0.8805970149253731
F0.2
(I202
F0.8805970149253731
F0.2
tp405
tp406
a(F0.9649122807017544
F0.6666666666666666
(I203
F0.9649122807017544
F0.6666666666666666
tp407
tp408
a(F0.9016393442622951
F0.25
(I204
F0.9016393442622951
F0.25
tp409
tp410
a(F0.9324324324324325
F0.16666666666666666
(I205
F0.9324324324324325
F0.16666666666666666
tp411
tp412
a(F0.8082191780821918
F0.0
(I206
F0.8082191780821918
F0.0
tp413
tp414
a(F0.8703703703703703
F0.125
(I207
F0.8703703703703703
F0.125
tp415
tp416
a(F0.782608695652174
F0.16666666666666666
(I208
F0.782608695652174
F0.16666666666666666
tp417
tp418
a(F0.7843137254901961
F0.0
(I209
F0.7843137254901961
F0.0
tp419
tp420
a(F0.9285714285714286
F0.0
(I210
F0.9285714285714286
F0.0
tp421
tp422
a(F0.9444444444444444
F0.4
(I211
F0.9444444444444444
F0.4
tp423
tp424
a(F0.92
F0.2
(I212
F0.92
F0.2
tp425
tp426
a(F0.875
F0.36363636363636365
(I213
F0.875
F0.36363636363636365
tp427
tp428
a(F0.9154929577464789
F0.5
(I214
F0.9154929577464789
F0.5
tp429
tp430
a(F0.9230769230769231
F0.5
(I215
F0.9230769230769231
F0.5
tp431
tp432
a(F0.8181818181818182
F0.0
(I216
F0.8181818181818182
F0.0
tp433
tp434
a(F0.7945205479452054
F0.0
(I217
F0.7945205479452054
F0.0
tp435
tp436
a(F0.9047619047619048
F0.3333333333333333
(I218
F0.9047619047619048
F0.3333333333333333
tp437
tp438
a(F0.8611111111111112
F0.0
(I219
F0.8611111111111112
F0.0
tp439
tp440
a(F0.9215686274509803
F0.2
(I220
F0.9215686274509803
F0.2
tp441
tp442
a(F0.6842105263157895
F0.03225806451612903
(I221
F0.6842105263157895
F0.03225806451612903
tp443
tp444
a(F0.925
F0.7
(I222
F0.925
F0.7
tp445
tp446
a(F0.975609756097561
F0.75
(I223
F0.975609756097561
F0.75
tp447
tp448
a(F0.9782608695652174
F0.8571428571428571
(I224
F0.9782608695652174
F0.8571428571428571
tp449
tp450
a(F0.9583333333333334
F0.4
(I225
F0.9583333333333334
F0.4
tp451
tp452
a(F0.9019607843137255
F0.2857142857142857
(I226
F0.9019607843137255
F0.2857142857142857
tp453
tp454
a(F0.9811320754716981
F0.6666666666666666
(I227
F0.9811320754716981
F0.6666666666666666
tp455
tp456
a(F0.9705882352941176
F0.7142857142857143
(I228
F0.9705882352941176
F0.7142857142857143
tp457
tp458
a(F0.927536231884058
F0.16666666666666666
(I229
F0.927536231884058
F0.16666666666666666
tp459
tp460
a(F0.8554216867469879
F0.07692307692307693
(I230
F0.8554216867469879
F0.07692307692307693
tp461
tp462
a(F0.8793103448275862
F0.0
(I231
F0.8793103448275862
F0.0
tp463
tp464
a(F0.7878787878787878
F0.17647058823529413
(I232
F0.7878787878787878
F0.17647058823529413
tp465
tp466
a(F0.8536585365853658
F0.0
(I233
F0.8536585365853658
F0.0
tp467
tp468
a(F0.9019607843137255
F0.6153846153846154
(I234
F0.9019607843137255
F0.6153846153846154
tp469
tp470
a(F0.925
F0.5
(I235
F0.925
F0.5
tp471
tp472
a(F0.8769230769230769
F0.1111111111111111
(I236
F0.8769230769230769
F0.1111111111111111
tp473
tp474
a(F0.890625
F0.0
(I237
F0.890625
F0.0
tp475
tp476
a(F0.9154929577464789
F0.25
(I238
F0.9154929577464789
F0.25
tp477
tp478
a(F0.9285714285714286
F0.0
(I239
F0.9285714285714286
F0.0
tp479
tp480
a.